Archive member included to satisfy reference by file (symbol)

/home/maddocks/src/i2c-star-stm32f411ceu6-blackpill/libopencm3/lib/libopencm3_stm32f1.a(desig.o)
                              i2c-stm32f1-usb.o (desig_get_unique_id_as_string)
/home/maddocks/src/i2c-star-stm32f411ceu6-blackpill/libopencm3/lib/libopencm3_stm32f1.a(gpio.o)
                              console_stm32.o (gpio_set_mode)
/home/maddocks/src/i2c-star-stm32f411ceu6-blackpill/libopencm3/lib/libopencm3_stm32f1.a(gpio_common_all.o)
                              i2c-stm32f1-usb.o (gpio_clear)
/home/maddocks/src/i2c-star-stm32f411ceu6-blackpill/libopencm3/lib/libopencm3_stm32f1.a(i2c_common_v1.o)
                              i2c_ctx.o (i2c_peripheral_enable)
/home/maddocks/src/i2c-star-stm32f411ceu6-blackpill/libopencm3/lib/libopencm3_stm32f1.a(rcc.o)
                              i2c-stm32f1-usb.o (rcc_clock_setup_in_hse_8mhz_out_72mhz)
/home/maddocks/src/i2c-star-stm32f411ceu6-blackpill/libopencm3/lib/libopencm3_stm32f1.a(rcc_common_all.o)
                              console_stm32.o (rcc_periph_clock_enable)
/home/maddocks/src/i2c-star-stm32f411ceu6-blackpill/libopencm3/lib/libopencm3_stm32f1.a(usart_common_all.o)
                              console_stm32.o (usart_set_baudrate)
/home/maddocks/src/i2c-star-stm32f411ceu6-blackpill/libopencm3/lib/libopencm3_stm32f1.a(usart_common_f124.o)
                              console_stm32.o (usart_send)
/home/maddocks/src/i2c-star-stm32f411ceu6-blackpill/libopencm3/lib/libopencm3_stm32f1.a(usb.o)
                              i2c-stm32f1-usb.o (usbd_init)
/home/maddocks/src/i2c-star-stm32f411ceu6-blackpill/libopencm3/lib/libopencm3_stm32f1.a(usb_control.o)
                              i2c-stm32f1-usb.o (usbd_register_control_callback)
/home/maddocks/src/i2c-star-stm32f411ceu6-blackpill/libopencm3/lib/libopencm3_stm32f1.a(usb_standard.o)
                              i2c-stm32f1-usb.o (usbd_register_set_config_callback)
/home/maddocks/src/i2c-star-stm32f411ceu6-blackpill/libopencm3/lib/libopencm3_stm32f1.a(st_usbfs_v1.o)
                              i2c-stm32f1-usb.o (st_usbfs_v1_usb_driver)
/home/maddocks/src/i2c-star-stm32f411ceu6-blackpill/libopencm3/lib/libopencm3_stm32f1.a(vector.o)
                              (reset_handler)
/home/maddocks/src/i2c-star-stm32f411ceu6-blackpill/libopencm3/lib/libopencm3_stm32f1.a(systick.o)
                              time_libopencm3.o (systick_set_reload)
/home/maddocks/src/i2c-star-stm32f411ceu6-blackpill/libopencm3/lib/libopencm3_stm32f1.a(scb.o)
                              i2c-stm32f1-usb.o (scb_reset_system)
/home/maddocks/src/i2c-star-stm32f411ceu6-blackpill/libopencm3/lib/libopencm3_stm32f1.a(nvic.o)
                              console_stm32.o (nvic_enable_irq)
/home/maddocks/src/i2c-star-stm32f411ceu6-blackpill/libopencm3/lib/libopencm3_stm32f1.a(assert.o)
                              /home/maddocks/src/i2c-star-stm32f411ceu6-blackpill/libopencm3/lib/libopencm3_stm32f1.a(rcc.o) (cm3_assert_failed)
/home/maddocks/src/i2c-star-stm32f411ceu6-blackpill/libopencm3/lib/libopencm3_stm32f1.a(flash_common_all.o)
                              /home/maddocks/src/i2c-star-stm32f411ceu6-blackpill/libopencm3/lib/libopencm3_stm32f1.a(rcc.o) (flash_set_ws)
/home/maddocks/src/i2c-star-stm32f411ceu6-blackpill/libopencm3/lib/libopencm3_stm32f1.a(st_usbfs_core.o)
                              /home/maddocks/src/i2c-star-stm32f411ceu6-blackpill/libopencm3/lib/libopencm3_stm32f1.a(st_usbfs_v1.o) (st_usbfs_set_address)
/usr/lib/gcc/arm-none-eabi/9.2.1/../../../arm-none-eabi/lib/thumb/v7-m/nofp/libc.a(lib_a-abort.o)
                              util.o (abort)
/usr/lib/gcc/arm-none-eabi/9.2.1/../../../arm-none-eabi/lib/thumb/v7-m/nofp/libc.a(lib_a-ctype_.o)
                              console.o (_ctype_)
/usr/lib/gcc/arm-none-eabi/9.2.1/../../../arm-none-eabi/lib/thumb/v7-m/nofp/libc.a(lib_a-errno.o)
                              console_stm32.o (__errno)
/usr/lib/gcc/arm-none-eabi/9.2.1/../../../arm-none-eabi/lib/thumb/v7-m/nofp/libc.a(lib_a-fflush.o)
                              console.o (fflush)
/usr/lib/gcc/arm-none-eabi/9.2.1/../../../arm-none-eabi/lib/thumb/v7-m/nofp/libc.a(lib_a-findfp.o)
                              /usr/lib/gcc/arm-none-eabi/9.2.1/../../../arm-none-eabi/lib/thumb/v7-m/nofp/libc.a(lib_a-fflush.o) (__sinit)
/usr/lib/gcc/arm-none-eabi/9.2.1/../../../arm-none-eabi/lib/thumb/v7-m/nofp/libc.a(lib_a-fprintf.o)
                              console.o (fprintf)
/usr/lib/gcc/arm-none-eabi/9.2.1/../../../arm-none-eabi/lib/thumb/v7-m/nofp/libc.a(lib_a-fputc.o)
                              console.o (fputc)
/usr/lib/gcc/arm-none-eabi/9.2.1/../../../arm-none-eabi/lib/thumb/v7-m/nofp/libc.a(lib_a-fputs.o)
                              console.o (fputs)
/usr/lib/gcc/arm-none-eabi/9.2.1/../../../arm-none-eabi/lib/thumb/v7-m/nofp/libc.a(lib_a-freer.o)
                              /usr/lib/gcc/arm-none-eabi/9.2.1/../../../arm-none-eabi/lib/thumb/v7-m/nofp/libc.a(lib_a-fflush.o) (_free_r)
/usr/lib/gcc/arm-none-eabi/9.2.1/../../../arm-none-eabi/lib/thumb/v7-m/nofp/libc.a(lib_a-fvwrite.o)
                              /usr/lib/gcc/arm-none-eabi/9.2.1/../../../arm-none-eabi/lib/thumb/v7-m/nofp/libc.a(lib_a-fputs.o) (__sfvwrite_r)
/usr/lib/gcc/arm-none-eabi/9.2.1/../../../arm-none-eabi/lib/thumb/v7-m/nofp/libc.a(lib_a-fwalk.o)
                              /usr/lib/gcc/arm-none-eabi/9.2.1/../../../arm-none-eabi/lib/thumb/v7-m/nofp/libc.a(lib_a-findfp.o) (_fwalk)
/usr/lib/gcc/arm-none-eabi/9.2.1/../../../arm-none-eabi/lib/thumb/v7-m/nofp/libc.a(lib_a-impure.o)
                              /usr/lib/gcc/arm-none-eabi/9.2.1/../../../arm-none-eabi/lib/thumb/v7-m/nofp/libc.a(lib_a-fflush.o) (_global_impure_ptr)
/usr/lib/gcc/arm-none-eabi/9.2.1/../../../arm-none-eabi/lib/thumb/v7-m/nofp/libc.a(lib_a-malloc.o)
                              util.o (malloc)
/usr/lib/gcc/arm-none-eabi/9.2.1/../../../arm-none-eabi/lib/thumb/v7-m/nofp/libc.a(lib_a-mallocr.o)
                              /usr/lib/gcc/arm-none-eabi/9.2.1/../../../arm-none-eabi/lib/thumb/v7-m/nofp/libc.a(lib_a-findfp.o) (_malloc_r)
/usr/lib/gcc/arm-none-eabi/9.2.1/../../../arm-none-eabi/lib/thumb/v7-m/nofp/libc.a(lib_a-memchr-stub.o)
                              /usr/lib/gcc/arm-none-eabi/9.2.1/../../../arm-none-eabi/lib/thumb/v7-m/nofp/libc.a(lib_a-fvwrite.o) (memchr)
/usr/lib/gcc/arm-none-eabi/9.2.1/../../../arm-none-eabi/lib/thumb/v7-m/nofp/libc.a(lib_a-memcpy.o)
                              /home/maddocks/src/i2c-star-stm32f411ceu6-blackpill/libopencm3/lib/libopencm3_stm32f1.a(usb_standard.o) (memcpy)
/usr/lib/gcc/arm-none-eabi/9.2.1/../../../arm-none-eabi/lib/thumb/v7-m/nofp/libc.a(lib_a-memmove.o)
                              /usr/lib/gcc/arm-none-eabi/9.2.1/../../../arm-none-eabi/lib/thumb/v7-m/nofp/libc.a(lib_a-fvwrite.o) (memmove)
/usr/lib/gcc/arm-none-eabi/9.2.1/../../../arm-none-eabi/lib/thumb/v7-m/nofp/libc.a(lib_a-memset.o)
                              console.o (memset)
/usr/lib/gcc/arm-none-eabi/9.2.1/../../../arm-none-eabi/lib/thumb/v7-m/nofp/libc.a(lib_a-mlock.o)
                              /usr/lib/gcc/arm-none-eabi/9.2.1/../../../arm-none-eabi/lib/thumb/v7-m/nofp/libc.a(lib_a-freer.o) (__malloc_lock)
/usr/lib/gcc/arm-none-eabi/9.2.1/../../../arm-none-eabi/lib/thumb/v7-m/nofp/libc.a(lib_a-putc.o)
                              /usr/lib/gcc/arm-none-eabi/9.2.1/../../../arm-none-eabi/lib/thumb/v7-m/nofp/libc.a(lib_a-fputc.o) (_putc_r)
/usr/lib/gcc/arm-none-eabi/9.2.1/../../../arm-none-eabi/lib/thumb/v7-m/nofp/libc.a(lib_a-puts.o)
                              i2c_ctx.o (puts)
/usr/lib/gcc/arm-none-eabi/9.2.1/../../../arm-none-eabi/lib/thumb/v7-m/nofp/libc.a(lib_a-reallocr.o)
                              /usr/lib/gcc/arm-none-eabi/9.2.1/../../../arm-none-eabi/lib/thumb/v7-m/nofp/libc.a(lib_a-fvwrite.o) (_realloc_r)
/usr/lib/gcc/arm-none-eabi/9.2.1/../../../arm-none-eabi/lib/thumb/v7-m/nofp/libc.a(lib_a-sbrkr.o)
                              /usr/lib/gcc/arm-none-eabi/9.2.1/../../../arm-none-eabi/lib/thumb/v7-m/nofp/libc.a(lib_a-freer.o) (_sbrk_r)
/usr/lib/gcc/arm-none-eabi/9.2.1/../../../arm-none-eabi/lib/thumb/v7-m/nofp/libc.a(lib_a-signal.o)
                              /usr/lib/gcc/arm-none-eabi/9.2.1/../../../arm-none-eabi/lib/thumb/v7-m/nofp/libc.a(lib_a-abort.o) (raise)
/usr/lib/gcc/arm-none-eabi/9.2.1/../../../arm-none-eabi/lib/thumb/v7-m/nofp/libc.a(lib_a-signalr.o)
                              /usr/lib/gcc/arm-none-eabi/9.2.1/../../../arm-none-eabi/lib/thumb/v7-m/nofp/libc.a(lib_a-signal.o) (_kill_r)
/usr/lib/gcc/arm-none-eabi/9.2.1/../../../arm-none-eabi/lib/thumb/v7-m/nofp/libc.a(lib_a-stdio.o)
                              /usr/lib/gcc/arm-none-eabi/9.2.1/../../../arm-none-eabi/lib/thumb/v7-m/nofp/libc.a(lib_a-findfp.o) (__sread)
/usr/lib/gcc/arm-none-eabi/9.2.1/../../../arm-none-eabi/lib/thumb/v7-m/nofp/libc.a(lib_a-strcmp.o)
                              console.o (strcmp)
/usr/lib/gcc/arm-none-eabi/9.2.1/../../../arm-none-eabi/lib/thumb/v7-m/nofp/libc.a(lib_a-strlen-stub.o)
                              console.o (strlen)
/usr/lib/gcc/arm-none-eabi/9.2.1/../../../arm-none-eabi/lib/thumb/v7-m/nofp/libc.a(lib_a-vfprintf.o)
                              /usr/lib/gcc/arm-none-eabi/9.2.1/../../../arm-none-eabi/lib/thumb/v7-m/nofp/libc.a(lib_a-fprintf.o) (_vfprintf_r)
/usr/lib/gcc/arm-none-eabi/9.2.1/../../../arm-none-eabi/lib/thumb/v7-m/nofp/libc.a(lib_a-wbuf.o)
                              /usr/lib/gcc/arm-none-eabi/9.2.1/../../../arm-none-eabi/lib/thumb/v7-m/nofp/libc.a(lib_a-putc.o) (__swbuf_r)
/usr/lib/gcc/arm-none-eabi/9.2.1/../../../arm-none-eabi/lib/thumb/v7-m/nofp/libc.a(lib_a-writer.o)
                              /usr/lib/gcc/arm-none-eabi/9.2.1/../../../arm-none-eabi/lib/thumb/v7-m/nofp/libc.a(lib_a-stdio.o) (_write_r)
/usr/lib/gcc/arm-none-eabi/9.2.1/../../../arm-none-eabi/lib/thumb/v7-m/nofp/libc.a(lib_a-wsetup.o)
                              /usr/lib/gcc/arm-none-eabi/9.2.1/../../../arm-none-eabi/lib/thumb/v7-m/nofp/libc.a(lib_a-fvwrite.o) (__swsetup_r)
/usr/lib/gcc/arm-none-eabi/9.2.1/../../../arm-none-eabi/lib/thumb/v7-m/nofp/libc.a(lib_a-closer.o)
                              /usr/lib/gcc/arm-none-eabi/9.2.1/../../../arm-none-eabi/lib/thumb/v7-m/nofp/libc.a(lib_a-stdio.o) (_close_r)
/usr/lib/gcc/arm-none-eabi/9.2.1/../../../arm-none-eabi/lib/thumb/v7-m/nofp/libc.a(lib_a-dtoa.o)
                              /usr/lib/gcc/arm-none-eabi/9.2.1/../../../arm-none-eabi/lib/thumb/v7-m/nofp/libc.a(lib_a-vfprintf.o) (_dtoa_r)
/usr/lib/gcc/arm-none-eabi/9.2.1/../../../arm-none-eabi/lib/thumb/v7-m/nofp/libc.a(lib_a-fclose.o)
                              /usr/lib/gcc/arm-none-eabi/9.2.1/../../../arm-none-eabi/lib/thumb/v7-m/nofp/libc.a(lib_a-findfp.o) (_fclose_r)
/usr/lib/gcc/arm-none-eabi/9.2.1/../../../arm-none-eabi/lib/thumb/v7-m/nofp/libc.a(lib_a-localeconv.o)
                              /usr/lib/gcc/arm-none-eabi/9.2.1/../../../arm-none-eabi/lib/thumb/v7-m/nofp/libc.a(lib_a-vfprintf.o) (_localeconv_r)
/usr/lib/gcc/arm-none-eabi/9.2.1/../../../arm-none-eabi/lib/thumb/v7-m/nofp/libc.a(lib_a-lseekr.o)
                              /usr/lib/gcc/arm-none-eabi/9.2.1/../../../arm-none-eabi/lib/thumb/v7-m/nofp/libc.a(lib_a-stdio.o) (_lseek_r)
/usr/lib/gcc/arm-none-eabi/9.2.1/../../../arm-none-eabi/lib/thumb/v7-m/nofp/libc.a(lib_a-makebuf.o)
                              /usr/lib/gcc/arm-none-eabi/9.2.1/../../../arm-none-eabi/lib/thumb/v7-m/nofp/libc.a(lib_a-wsetup.o) (__smakebuf_r)
/usr/lib/gcc/arm-none-eabi/9.2.1/../../../arm-none-eabi/lib/thumb/v7-m/nofp/libc.a(lib_a-mprec.o)
                              /usr/lib/gcc/arm-none-eabi/9.2.1/../../../arm-none-eabi/lib/thumb/v7-m/nofp/libc.a(lib_a-dtoa.o) (_Balloc)
/usr/lib/gcc/arm-none-eabi/9.2.1/../../../arm-none-eabi/lib/thumb/v7-m/nofp/libc.a(lib_a-readr.o)
                              /usr/lib/gcc/arm-none-eabi/9.2.1/../../../arm-none-eabi/lib/thumb/v7-m/nofp/libc.a(lib_a-stdio.o) (_read_r)
/usr/lib/gcc/arm-none-eabi/9.2.1/../../../arm-none-eabi/lib/thumb/v7-m/nofp/libc.a(lib_a-reent.o)
                              /usr/lib/gcc/arm-none-eabi/9.2.1/../../../arm-none-eabi/lib/thumb/v7-m/nofp/libc.a(lib_a-sbrkr.o) (errno)
/usr/lib/gcc/arm-none-eabi/9.2.1/../../../arm-none-eabi/lib/thumb/v7-m/nofp/libc.a(lib_a-vfiprintf.o)
                              /usr/lib/gcc/arm-none-eabi/9.2.1/../../../arm-none-eabi/lib/thumb/v7-m/nofp/libc.a(lib_a-vfprintf.o) (__sprint_r)
/usr/lib/gcc/arm-none-eabi/9.2.1/../../../arm-none-eabi/lib/thumb/v7-m/nofp/libc.a(lib_a-assert.o)
                              /usr/lib/gcc/arm-none-eabi/9.2.1/../../../arm-none-eabi/lib/thumb/v7-m/nofp/libc.a(lib_a-dtoa.o) (__assert_func)
/usr/lib/gcc/arm-none-eabi/9.2.1/../../../arm-none-eabi/lib/thumb/v7-m/nofp/libc.a(lib_a-callocr.o)
                              /usr/lib/gcc/arm-none-eabi/9.2.1/../../../arm-none-eabi/lib/thumb/v7-m/nofp/libc.a(lib_a-mprec.o) (_calloc_r)
/usr/lib/gcc/arm-none-eabi/9.2.1/../../../arm-none-eabi/lib/thumb/v7-m/nofp/libc.a(lib_a-fiprintf.o)
                              /usr/lib/gcc/arm-none-eabi/9.2.1/../../../arm-none-eabi/lib/thumb/v7-m/nofp/libc.a(lib_a-assert.o) (fiprintf)
/usr/lib/gcc/arm-none-eabi/9.2.1/../../../arm-none-eabi/lib/thumb/v7-m/nofp/libc.a(lib_a-fputwc.o)
                              /usr/lib/gcc/arm-none-eabi/9.2.1/../../../arm-none-eabi/lib/thumb/v7-m/nofp/libc.a(lib_a-vfiprintf.o) (_fputwc_r)
/usr/lib/gcc/arm-none-eabi/9.2.1/../../../arm-none-eabi/lib/thumb/v7-m/nofp/libc.a(lib_a-fstatr.o)
                              /usr/lib/gcc/arm-none-eabi/9.2.1/../../../arm-none-eabi/lib/thumb/v7-m/nofp/libc.a(lib_a-makebuf.o) (_fstat_r)
/usr/lib/gcc/arm-none-eabi/9.2.1/../../../arm-none-eabi/lib/thumb/v7-m/nofp/libc.a(lib_a-isattyr.o)
                              /usr/lib/gcc/arm-none-eabi/9.2.1/../../../arm-none-eabi/lib/thumb/v7-m/nofp/libc.a(lib_a-makebuf.o) (_isatty_r)
/usr/lib/gcc/arm-none-eabi/9.2.1/../../../arm-none-eabi/lib/thumb/v7-m/nofp/libc.a(lib_a-locale.o)
                              /usr/lib/gcc/arm-none-eabi/9.2.1/../../../arm-none-eabi/lib/thumb/v7-m/nofp/libc.a(lib_a-fputwc.o) (__locale_mb_cur_max)
/usr/lib/gcc/arm-none-eabi/9.2.1/../../../arm-none-eabi/lib/thumb/v7-m/nofp/libc.a(lib_a-mbtowc_r.o)
                              /usr/lib/gcc/arm-none-eabi/9.2.1/../../../arm-none-eabi/lib/thumb/v7-m/nofp/libc.a(lib_a-locale.o) (__ascii_mbtowc)
/usr/lib/gcc/arm-none-eabi/9.2.1/../../../arm-none-eabi/lib/thumb/v7-m/nofp/libc.a(lib_a-wcrtomb.o)
                              /usr/lib/gcc/arm-none-eabi/9.2.1/../../../arm-none-eabi/lib/thumb/v7-m/nofp/libc.a(lib_a-fputwc.o) (_wcrtomb_r)
/usr/lib/gcc/arm-none-eabi/9.2.1/../../../arm-none-eabi/lib/thumb/v7-m/nofp/libc.a(lib_a-wctomb_r.o)
                              /usr/lib/gcc/arm-none-eabi/9.2.1/../../../arm-none-eabi/lib/thumb/v7-m/nofp/libc.a(lib_a-locale.o) (__ascii_wctomb)
/usr/lib/gcc/arm-none-eabi/9.2.1/thumb/v7-m/nofp/libgcc.a(_arm_muldf3.o)
                              /usr/lib/gcc/arm-none-eabi/9.2.1/../../../arm-none-eabi/lib/thumb/v7-m/nofp/libc.a(lib_a-dtoa.o) (__aeabi_dmul)
/usr/lib/gcc/arm-none-eabi/9.2.1/thumb/v7-m/nofp/libgcc.a(_arm_addsubdf3.o)
                              /usr/lib/gcc/arm-none-eabi/9.2.1/../../../arm-none-eabi/lib/thumb/v7-m/nofp/libc.a(lib_a-dtoa.o) (__aeabi_dsub)
/usr/lib/gcc/arm-none-eabi/9.2.1/thumb/v7-m/nofp/libgcc.a(_arm_muldivdf3.o)
                              /usr/lib/gcc/arm-none-eabi/9.2.1/../../../arm-none-eabi/lib/thumb/v7-m/nofp/libc.a(lib_a-dtoa.o) (__aeabi_ddiv)
/usr/lib/gcc/arm-none-eabi/9.2.1/thumb/v7-m/nofp/libgcc.a(_arm_cmpdf2.o)
                              /usr/lib/gcc/arm-none-eabi/9.2.1/../../../arm-none-eabi/lib/thumb/v7-m/nofp/libc.a(lib_a-vfprintf.o) (__aeabi_dcmpeq)
/usr/lib/gcc/arm-none-eabi/9.2.1/thumb/v7-m/nofp/libgcc.a(_arm_unorddf2.o)
                              /usr/lib/gcc/arm-none-eabi/9.2.1/../../../arm-none-eabi/lib/thumb/v7-m/nofp/libc.a(lib_a-vfprintf.o) (__aeabi_dcmpun)
/usr/lib/gcc/arm-none-eabi/9.2.1/thumb/v7-m/nofp/libgcc.a(_arm_fixdfsi.o)
                              /usr/lib/gcc/arm-none-eabi/9.2.1/../../../arm-none-eabi/lib/thumb/v7-m/nofp/libc.a(lib_a-dtoa.o) (__aeabi_d2iz)
/usr/lib/gcc/arm-none-eabi/9.2.1/thumb/v7-m/nofp/libgcc.a(_aeabi_uldivmod.o)
                              /usr/lib/gcc/arm-none-eabi/9.2.1/../../../arm-none-eabi/lib/thumb/v7-m/nofp/libc.a(lib_a-vfprintf.o) (__aeabi_uldivmod)
/usr/lib/gcc/arm-none-eabi/9.2.1/thumb/v7-m/nofp/libgcc.a(_udivmoddi4.o)
                              /usr/lib/gcc/arm-none-eabi/9.2.1/thumb/v7-m/nofp/libgcc.a(_aeabi_uldivmod.o) (__udivmoddi4)
/usr/lib/gcc/arm-none-eabi/9.2.1/thumb/v7-m/nofp/libgcc.a(_dvmd_tls.o)
                              /usr/lib/gcc/arm-none-eabi/9.2.1/thumb/v7-m/nofp/libgcc.a(_aeabi_uldivmod.o) (__aeabi_ldiv0)
/usr/lib/gcc/arm-none-eabi/9.2.1/../../../arm-none-eabi/lib/thumb/v7-m/nofp/libnosys.a(close.o)
                              /usr/lib/gcc/arm-none-eabi/9.2.1/../../../arm-none-eabi/lib/thumb/v7-m/nofp/libc.a(lib_a-closer.o) (_close)
/usr/lib/gcc/arm-none-eabi/9.2.1/../../../arm-none-eabi/lib/thumb/v7-m/nofp/libnosys.a(fstat.o)
                              /usr/lib/gcc/arm-none-eabi/9.2.1/../../../arm-none-eabi/lib/thumb/v7-m/nofp/libc.a(lib_a-fstatr.o) (_fstat)
/usr/lib/gcc/arm-none-eabi/9.2.1/../../../arm-none-eabi/lib/thumb/v7-m/nofp/libnosys.a(getpid.o)
                              /usr/lib/gcc/arm-none-eabi/9.2.1/../../../arm-none-eabi/lib/thumb/v7-m/nofp/libc.a(lib_a-signalr.o) (_getpid)
/usr/lib/gcc/arm-none-eabi/9.2.1/../../../arm-none-eabi/lib/thumb/v7-m/nofp/libnosys.a(isatty.o)
                              /usr/lib/gcc/arm-none-eabi/9.2.1/../../../arm-none-eabi/lib/thumb/v7-m/nofp/libc.a(lib_a-isattyr.o) (_isatty)
/usr/lib/gcc/arm-none-eabi/9.2.1/../../../arm-none-eabi/lib/thumb/v7-m/nofp/libnosys.a(kill.o)
                              /usr/lib/gcc/arm-none-eabi/9.2.1/../../../arm-none-eabi/lib/thumb/v7-m/nofp/libc.a(lib_a-signalr.o) (_kill)
/usr/lib/gcc/arm-none-eabi/9.2.1/../../../arm-none-eabi/lib/thumb/v7-m/nofp/libnosys.a(lseek.o)
                              /usr/lib/gcc/arm-none-eabi/9.2.1/../../../arm-none-eabi/lib/thumb/v7-m/nofp/libc.a(lib_a-lseekr.o) (_lseek)
/usr/lib/gcc/arm-none-eabi/9.2.1/../../../arm-none-eabi/lib/thumb/v7-m/nofp/libnosys.a(read.o)
                              /usr/lib/gcc/arm-none-eabi/9.2.1/../../../arm-none-eabi/lib/thumb/v7-m/nofp/libc.a(lib_a-readr.o) (_read)
/usr/lib/gcc/arm-none-eabi/9.2.1/../../../arm-none-eabi/lib/thumb/v7-m/nofp/libnosys.a(sbrk.o)
                              /usr/lib/gcc/arm-none-eabi/9.2.1/../../../arm-none-eabi/lib/thumb/v7-m/nofp/libc.a(lib_a-sbrkr.o) (_sbrk)
/usr/lib/gcc/arm-none-eabi/9.2.1/../../../arm-none-eabi/lib/thumb/v7-m/nofp/libnosys.a(_exit.o)
                              /usr/lib/gcc/arm-none-eabi/9.2.1/../../../arm-none-eabi/lib/thumb/v7-m/nofp/libc.a(lib_a-abort.o) (_exit)

Allocating common symbols
Common symbol       size              file

errno               0x4               /usr/lib/gcc/arm-none-eabi/9.2.1/../../../arm-none-eabi/lib/thumb/v7-m/nofp/libc.a(lib_a-reent.o)

Discarded input sections

 .text          0x0000000000000000        0x0 console.o
 .data          0x0000000000000000        0x0 console.o
 .bss           0x0000000000000000        0x0 console.o
 .text.console_getch
                0x0000000000000000        0x6 console.o
 .text.console_eval
                0x0000000000000000       0x54 console.o
 .text.console_process
                0x0000000000000000       0x16 console.o
 .text          0x0000000000000000        0x0 console_stm32.o
 .data          0x0000000000000000        0x0 console_stm32.o
 .bss           0x0000000000000000        0x0 console_stm32.o
 .text          0x0000000000000000        0x0 i2c_ctx.o
 .data          0x0000000000000000        0x0 i2c_ctx.o
 .bss           0x0000000000000000        0x0 i2c_ctx.o
 .text.i2c_ctx_detect
                0x0000000000000000       0xb4 i2c_ctx.o
 .text.i2c_ctx_setreg
                0x0000000000000000       0x9c i2c_ctx.o
 .text.i2c_ctx_getreg
                0x0000000000000000       0xb6 i2c_ctx.o
 .text.i2c_ctx_write
                0x0000000000000000       0x94 i2c_ctx.o
 .text          0x0000000000000000        0x0 bitops.o
 .data          0x0000000000000000        0x0 bitops.o
 .bss           0x0000000000000000        0x0 bitops.o
 .text.clz      0x0000000000000000       0x1a bitops.o
 .text.ilog2    0x0000000000000000        0xc bitops.o
 .text          0x0000000000000000        0x0 fibre.o
 .data          0x0000000000000000        0x0 fibre.o
 .bss           0x0000000000000000        0x0 fibre.o
 .text.fibre_self
                0x0000000000000000        0xc fibre.o
 .text.fibre_kill
                0x0000000000000000       0x2c fibre.o
 .text.fibre_eventq_init
                0x0000000000000000       0x1a fibre.o
 .text.fibre_eventq_claim
                0x0000000000000000       0x2c fibre.o
 .text.fibre_eventq_send
                0x0000000000000000       0x14 fibre.o
 .text.fibre_eventq_empty
                0x0000000000000000        0x6 fibre.o
 .text.fibre_eventq_receive
                0x0000000000000000        0x6 fibre.o
 .text.fibre_eventq_release
                0x0000000000000000        0x6 fibre.o
 .text          0x0000000000000000        0x0 fibre_default.o
 .data          0x0000000000000000        0x0 fibre_default.o
 .bss           0x0000000000000000        0x0 fibre_default.o
 .text          0x0000000000000000        0x0 list.o
 .data          0x0000000000000000        0x0 list.o
 .bss           0x0000000000000000        0x0 list.o
 .text.list_push
                0x0000000000000000        0xe list.o
 .text          0x0000000000000000        0x0 messageq.o
 .data          0x0000000000000000        0x0 messageq.o
 .bss           0x0000000000000000        0x0 messageq.o
 .text.messageq_init
                0x0000000000000000       0x2c messageq.o
 .text          0x0000000000000000        0x0 regdump.o
 .data          0x0000000000000000        0x0 regdump.o
 .bss           0x0000000000000000        0x0 regdump.o
 .text.regdump_single
                0x0000000000000000       0x18 regdump.o
 .text          0x0000000000000000        0x0 ringbuf.o
 .data          0x0000000000000000        0x0 ringbuf.o
 .bss           0x0000000000000000        0x0 ringbuf.o
 .text.ringbuf_empty
                0x0000000000000000       0x1c ringbuf.o
 .text.ringbuf_putchar
                0x0000000000000000       0x10 ringbuf.o
 .text          0x0000000000000000        0x0 time_libopencm3.o
 .data          0x0000000000000000        0x0 time_libopencm3.o
 .bss           0x0000000000000000        0x0 time_libopencm3.o
 .text.time64_now
                0x0000000000000000        0xc time_libopencm3.o
 .text          0x0000000000000000        0x0 util.o
 .data          0x0000000000000000        0x0 util.o
 .bss           0x0000000000000000        0x0 util.o
 .text.ratelimit_check
                0x0000000000000000       0x44 util.o
 .text.unlikely.rf_internal_out_of_memory
                0x0000000000000000        0x6 util.o
 .text.xmalloc  0x0000000000000000        0xe util.o
 .text          0x0000000000000000        0x0 i2c-stm32f1-usb.o
 .data          0x0000000000000000        0x0 i2c-stm32f1-usb.o
 .bss           0x0000000000000000        0x0 i2c-stm32f1-usb.o
 .data.i2c      0x0000000000000000        0x4 i2c-stm32f1-usb.o
 .rodata.func   0x0000000000000000        0x4 i2c-stm32f1-usb.o
 .group         0x0000000000000000        0xc /home/maddocks/src/i2c-star-stm32f411ceu6-blackpill/libopencm3/lib/libopencm3_stm32f1.a(desig.o)
 .group         0x0000000000000000        0xc /home/maddocks/src/i2c-star-stm32f411ceu6-blackpill/libopencm3/lib/libopencm3_stm32f1.a(desig.o)
 .group         0x0000000000000000        0xc /home/maddocks/src/i2c-star-stm32f411ceu6-blackpill/libopencm3/lib/libopencm3_stm32f1.a(desig.o)
 .group         0x0000000000000000        0xc /home/maddocks/src/i2c-star-stm32f411ceu6-blackpill/libopencm3/lib/libopencm3_stm32f1.a(desig.o)
 .group         0x0000000000000000        0xc /home/maddocks/src/i2c-star-stm32f411ceu6-blackpill/libopencm3/lib/libopencm3_stm32f1.a(desig.o)
 .group         0x0000000000000000        0xc /home/maddocks/src/i2c-star-stm32f411ceu6-blackpill/libopencm3/lib/libopencm3_stm32f1.a(desig.o)
 .group         0x0000000000000000        0xc /home/maddocks/src/i2c-star-stm32f411ceu6-blackpill/libopencm3/lib/libopencm3_stm32f1.a(desig.o)
 .text          0x0000000000000000        0x0 /home/maddocks/src/i2c-star-stm32f411ceu6-blackpill/libopencm3/lib/libopencm3_stm32f1.a(desig.o)
 .data          0x0000000000000000        0x0 /home/maddocks/src/i2c-star-stm32f411ceu6-blackpill/libopencm3/lib/libopencm3_stm32f1.a(desig.o)
 .bss           0x0000000000000000        0x0 /home/maddocks/src/i2c-star-stm32f411ceu6-blackpill/libopencm3/lib/libopencm3_stm32f1.a(desig.o)
 .text.desig_get_flash_size
                0x0000000000000000        0xc /home/maddocks/src/i2c-star-stm32f411ceu6-blackpill/libopencm3/lib/libopencm3_stm32f1.a(desig.o)
 .text.desig_get_unique_id_as_dfu
                0x0000000000000000       0xa4 /home/maddocks/src/i2c-star-stm32f411ceu6-blackpill/libopencm3/lib/libopencm3_stm32f1.a(desig.o)
 .group         0x0000000000000000        0xc /home/maddocks/src/i2c-star-stm32f411ceu6-blackpill/libopencm3/lib/libopencm3_stm32f1.a(gpio.o)
 .group         0x0000000000000000        0xc /home/maddocks/src/i2c-star-stm32f411ceu6-blackpill/libopencm3/lib/libopencm3_stm32f1.a(gpio.o)
 .group         0x0000000000000000        0xc /home/maddocks/src/i2c-star-stm32f411ceu6-blackpill/libopencm3/lib/libopencm3_stm32f1.a(gpio.o)
 .group         0x0000000000000000        0xc /home/maddocks/src/i2c-star-stm32f411ceu6-blackpill/libopencm3/lib/libopencm3_stm32f1.a(gpio.o)
 .group         0x0000000000000000        0xc /home/maddocks/src/i2c-star-stm32f411ceu6-blackpill/libopencm3/lib/libopencm3_stm32f1.a(gpio.o)
 .group         0x0000000000000000        0xc /home/maddocks/src/i2c-star-stm32f411ceu6-blackpill/libopencm3/lib/libopencm3_stm32f1.a(gpio.o)
 .group         0x0000000000000000        0xc /home/maddocks/src/i2c-star-stm32f411ceu6-blackpill/libopencm3/lib/libopencm3_stm32f1.a(gpio.o)
 .group         0x0000000000000000        0xc /home/maddocks/src/i2c-star-stm32f411ceu6-blackpill/libopencm3/lib/libopencm3_stm32f1.a(gpio.o)
 .group         0x0000000000000000        0xc /home/maddocks/src/i2c-star-stm32f411ceu6-blackpill/libopencm3/lib/libopencm3_stm32f1.a(gpio.o)
 .text          0x0000000000000000        0x0 /home/maddocks/src/i2c-star-stm32f411ceu6-blackpill/libopencm3/lib/libopencm3_stm32f1.a(gpio.o)
 .data          0x0000000000000000        0x0 /home/maddocks/src/i2c-star-stm32f411ceu6-blackpill/libopencm3/lib/libopencm3_stm32f1.a(gpio.o)
 .bss           0x0000000000000000        0x0 /home/maddocks/src/i2c-star-stm32f411ceu6-blackpill/libopencm3/lib/libopencm3_stm32f1.a(gpio.o)
 .text.gpio_set_eventout
                0x0000000000000000       0x10 /home/maddocks/src/i2c-star-stm32f411ceu6-blackpill/libopencm3/lib/libopencm3_stm32f1.a(gpio.o)
 .text.gpio_primary_remap
                0x0000000000000000       0x14 /home/maddocks/src/i2c-star-stm32f411ceu6-blackpill/libopencm3/lib/libopencm3_stm32f1.a(gpio.o)
 .text.gpio_secondary_remap
                0x0000000000000000       0x10 /home/maddocks/src/i2c-star-stm32f411ceu6-blackpill/libopencm3/lib/libopencm3_stm32f1.a(gpio.o)
 .debug_macro   0x0000000000000000      0xa90 /home/maddocks/src/i2c-star-stm32f411ceu6-blackpill/libopencm3/lib/libopencm3_stm32f1.a(gpio.o)
 .debug_macro   0x0000000000000000       0x1c /home/maddocks/src/i2c-star-stm32f411ceu6-blackpill/libopencm3/lib/libopencm3_stm32f1.a(gpio.o)
 .debug_macro   0x0000000000000000      0x34e /home/maddocks/src/i2c-star-stm32f411ceu6-blackpill/libopencm3/lib/libopencm3_stm32f1.a(gpio.o)
 .debug_macro   0x0000000000000000       0x22 /home/maddocks/src/i2c-star-stm32f411ceu6-blackpill/libopencm3/lib/libopencm3_stm32f1.a(gpio.o)
 .debug_macro   0x0000000000000000       0xe8 /home/maddocks/src/i2c-star-stm32f411ceu6-blackpill/libopencm3/lib/libopencm3_stm32f1.a(gpio.o)
 .debug_macro   0x0000000000000000       0x76 /home/maddocks/src/i2c-star-stm32f411ceu6-blackpill/libopencm3/lib/libopencm3_stm32f1.a(gpio.o)
 .debug_macro   0x0000000000000000      0x1b4 /home/maddocks/src/i2c-star-stm32f411ceu6-blackpill/libopencm3/lib/libopencm3_stm32f1.a(gpio.o)
 .group         0x0000000000000000        0xc /home/maddocks/src/i2c-star-stm32f411ceu6-blackpill/libopencm3/lib/libopencm3_stm32f1.a(gpio_common_all.o)
 .group         0x0000000000000000        0xc /home/maddocks/src/i2c-star-stm32f411ceu6-blackpill/libopencm3/lib/libopencm3_stm32f1.a(gpio_common_all.o)
 .group         0x0000000000000000        0xc /home/maddocks/src/i2c-star-stm32f411ceu6-blackpill/libopencm3/lib/libopencm3_stm32f1.a(gpio_common_all.o)
 .group         0x0000000000000000        0xc /home/maddocks/src/i2c-star-stm32f411ceu6-blackpill/libopencm3/lib/libopencm3_stm32f1.a(gpio_common_all.o)
 .group         0x0000000000000000        0xc /home/maddocks/src/i2c-star-stm32f411ceu6-blackpill/libopencm3/lib/libopencm3_stm32f1.a(gpio_common_all.o)
 .group         0x0000000000000000        0xc /home/maddocks/src/i2c-star-stm32f411ceu6-blackpill/libopencm3/lib/libopencm3_stm32f1.a(gpio_common_all.o)
 .group         0x0000000000000000        0xc /home/maddocks/src/i2c-star-stm32f411ceu6-blackpill/libopencm3/lib/libopencm3_stm32f1.a(gpio_common_all.o)
 .group         0x0000000000000000        0xc /home/maddocks/src/i2c-star-stm32f411ceu6-blackpill/libopencm3/lib/libopencm3_stm32f1.a(gpio_common_all.o)
 .group         0x0000000000000000        0xc /home/maddocks/src/i2c-star-stm32f411ceu6-blackpill/libopencm3/lib/libopencm3_stm32f1.a(gpio_common_all.o)
 .text          0x0000000000000000        0x0 /home/maddocks/src/i2c-star-stm32f411ceu6-blackpill/libopencm3/lib/libopencm3_stm32f1.a(gpio_common_all.o)
 .data          0x0000000000000000        0x0 /home/maddocks/src/i2c-star-stm32f411ceu6-blackpill/libopencm3/lib/libopencm3_stm32f1.a(gpio_common_all.o)
 .bss           0x0000000000000000        0x0 /home/maddocks/src/i2c-star-stm32f411ceu6-blackpill/libopencm3/lib/libopencm3_stm32f1.a(gpio_common_all.o)
 .text.gpio_set
                0x0000000000000000        0x4 /home/maddocks/src/i2c-star-stm32f411ceu6-blackpill/libopencm3/lib/libopencm3_stm32f1.a(gpio_common_all.o)
 .text.gpio_get
                0x0000000000000000        0x6 /home/maddocks/src/i2c-star-stm32f411ceu6-blackpill/libopencm3/lib/libopencm3_stm32f1.a(gpio_common_all.o)
 .text.gpio_toggle
                0x0000000000000000       0x12 /home/maddocks/src/i2c-star-stm32f411ceu6-blackpill/libopencm3/lib/libopencm3_stm32f1.a(gpio_common_all.o)
 .text.gpio_port_read
                0x0000000000000000        0x6 /home/maddocks/src/i2c-star-stm32f411ceu6-blackpill/libopencm3/lib/libopencm3_stm32f1.a(gpio_common_all.o)
 .text.gpio_port_write
                0x0000000000000000        0x4 /home/maddocks/src/i2c-star-stm32f411ceu6-blackpill/libopencm3/lib/libopencm3_stm32f1.a(gpio_common_all.o)
 .text.gpio_port_config_lock
                0x0000000000000000       0x10 /home/maddocks/src/i2c-star-stm32f411ceu6-blackpill/libopencm3/lib/libopencm3_stm32f1.a(gpio_common_all.o)
 .debug_macro   0x0000000000000000      0xa90 /home/maddocks/src/i2c-star-stm32f411ceu6-blackpill/libopencm3/lib/libopencm3_stm32f1.a(gpio_common_all.o)
 .debug_macro   0x0000000000000000       0x1c /home/maddocks/src/i2c-star-stm32f411ceu6-blackpill/libopencm3/lib/libopencm3_stm32f1.a(gpio_common_all.o)
 .debug_macro   0x0000000000000000      0x34e /home/maddocks/src/i2c-star-stm32f411ceu6-blackpill/libopencm3/lib/libopencm3_stm32f1.a(gpio_common_all.o)
 .debug_macro   0x0000000000000000       0x22 /home/maddocks/src/i2c-star-stm32f411ceu6-blackpill/libopencm3/lib/libopencm3_stm32f1.a(gpio_common_all.o)
 .debug_macro   0x0000000000000000       0xe8 /home/maddocks/src/i2c-star-stm32f411ceu6-blackpill/libopencm3/lib/libopencm3_stm32f1.a(gpio_common_all.o)
 .debug_macro   0x0000000000000000       0x76 /home/maddocks/src/i2c-star-stm32f411ceu6-blackpill/libopencm3/lib/libopencm3_stm32f1.a(gpio_common_all.o)
 .debug_macro   0x0000000000000000      0x1b4 /home/maddocks/src/i2c-star-stm32f411ceu6-blackpill/libopencm3/lib/libopencm3_stm32f1.a(gpio_common_all.o)
 .debug_macro   0x0000000000000000       0x76 /home/maddocks/src/i2c-star-stm32f411ceu6-blackpill/libopencm3/lib/libopencm3_stm32f1.a(gpio_common_all.o)
 .debug_macro   0x0000000000000000      0xe04 /home/maddocks/src/i2c-star-stm32f411ceu6-blackpill/libopencm3/lib/libopencm3_stm32f1.a(gpio_common_all.o)
 .group         0x0000000000000000        0xc /home/maddocks/src/i2c-star-stm32f411ceu6-blackpill/libopencm3/lib/libopencm3_stm32f1.a(i2c_common_v1.o)
 .group         0x0000000000000000        0xc /home/maddocks/src/i2c-star-stm32f411ceu6-blackpill/libopencm3/lib/libopencm3_stm32f1.a(i2c_common_v1.o)
 .group         0x0000000000000000        0xc /home/maddocks/src/i2c-star-stm32f411ceu6-blackpill/libopencm3/lib/libopencm3_stm32f1.a(i2c_common_v1.o)
 .group         0x0000000000000000        0xc /home/maddocks/src/i2c-star-stm32f411ceu6-blackpill/libopencm3/lib/libopencm3_stm32f1.a(i2c_common_v1.o)
 .group         0x0000000000000000        0xc /home/maddocks/src/i2c-star-stm32f411ceu6-blackpill/libopencm3/lib/libopencm3_stm32f1.a(i2c_common_v1.o)
 .group         0x0000000000000000        0xc /home/maddocks/src/i2c-star-stm32f411ceu6-blackpill/libopencm3/lib/libopencm3_stm32f1.a(i2c_common_v1.o)
 .group         0x0000000000000000        0xc /home/maddocks/src/i2c-star-stm32f411ceu6-blackpill/libopencm3/lib/libopencm3_stm32f1.a(i2c_common_v1.o)
 .group         0x0000000000000000        0xc /home/maddocks/src/i2c-star-stm32f411ceu6-blackpill/libopencm3/lib/libopencm3_stm32f1.a(i2c_common_v1.o)
 .group         0x0000000000000000        0xc /home/maddocks/src/i2c-star-stm32f411ceu6-blackpill/libopencm3/lib/libopencm3_stm32f1.a(i2c_common_v1.o)
 .group         0x0000000000000000        0xc /home/maddocks/src/i2c-star-stm32f411ceu6-blackpill/libopencm3/lib/libopencm3_stm32f1.a(i2c_common_v1.o)
 .text          0x0000000000000000        0x0 /home/maddocks/src/i2c-star-stm32f411ceu6-blackpill/libopencm3/lib/libopencm3_stm32f1.a(i2c_common_v1.o)
 .data          0x0000000000000000        0x0 /home/maddocks/src/i2c-star-stm32f411ceu6-blackpill/libopencm3/lib/libopencm3_stm32f1.a(i2c_common_v1.o)
 .bss           0x0000000000000000        0x0 /home/maddocks/src/i2c-star-stm32f411ceu6-blackpill/libopencm3/lib/libopencm3_stm32f1.a(i2c_common_v1.o)
 .text.i2c_reset
                0x0000000000000000       0x24 /home/maddocks/src/i2c-star-stm32f411ceu6-blackpill/libopencm3/lib/libopencm3_stm32f1.a(i2c_common_v1.o)
 .text.i2c_clear_stop
                0x0000000000000000        0xa /home/maddocks/src/i2c-star-stm32f411ceu6-blackpill/libopencm3/lib/libopencm3_stm32f1.a(i2c_common_v1.o)
 .text.i2c_set_own_10bit_slave_address
                0x0000000000000000        0x8 /home/maddocks/src/i2c-star-stm32f411ceu6-blackpill/libopencm3/lib/libopencm3_stm32f1.a(i2c_common_v1.o)
 .text.i2c_set_own_7bit_slave_address_two
                0x0000000000000000        0x6 /home/maddocks/src/i2c-star-stm32f411ceu6-blackpill/libopencm3/lib/libopencm3_stm32f1.a(i2c_common_v1.o)
 .text.i2c_enable_dual_addressing_mode
                0x0000000000000000        0xa /home/maddocks/src/i2c-star-stm32f411ceu6-blackpill/libopencm3/lib/libopencm3_stm32f1.a(i2c_common_v1.o)
 .text.i2c_disable_dual_addressing_mode
                0x0000000000000000        0xa /home/maddocks/src/i2c-star-stm32f411ceu6-blackpill/libopencm3/lib/libopencm3_stm32f1.a(i2c_common_v1.o)
 .text.i2c_set_fast_mode
                0x0000000000000000        0xa /home/maddocks/src/i2c-star-stm32f411ceu6-blackpill/libopencm3/lib/libopencm3_stm32f1.a(i2c_common_v1.o)
 .text.i2c_set_standard_mode
                0x0000000000000000        0xa /home/maddocks/src/i2c-star-stm32f411ceu6-blackpill/libopencm3/lib/libopencm3_stm32f1.a(i2c_common_v1.o)
 .text.i2c_enable_interrupt
                0x0000000000000000        0x8 /home/maddocks/src/i2c-star-stm32f411ceu6-blackpill/libopencm3/lib/libopencm3_stm32f1.a(i2c_common_v1.o)
 .text.i2c_disable_interrupt
                0x0000000000000000        0xa /home/maddocks/src/i2c-star-stm32f411ceu6-blackpill/libopencm3/lib/libopencm3_stm32f1.a(i2c_common_v1.o)
 .text.i2c_enable_ack
                0x0000000000000000        0xa /home/maddocks/src/i2c-star-stm32f411ceu6-blackpill/libopencm3/lib/libopencm3_stm32f1.a(i2c_common_v1.o)
 .text.i2c_disable_ack
                0x0000000000000000        0xa /home/maddocks/src/i2c-star-stm32f411ceu6-blackpill/libopencm3/lib/libopencm3_stm32f1.a(i2c_common_v1.o)
 .text.i2c_nack_next
                0x0000000000000000        0xa /home/maddocks/src/i2c-star-stm32f411ceu6-blackpill/libopencm3/lib/libopencm3_stm32f1.a(i2c_common_v1.o)
 .text.i2c_nack_current
                0x0000000000000000        0xa /home/maddocks/src/i2c-star-stm32f411ceu6-blackpill/libopencm3/lib/libopencm3_stm32f1.a(i2c_common_v1.o)
 .text.i2c_set_dutycycle
                0x0000000000000000       0x12 /home/maddocks/src/i2c-star-stm32f411ceu6-blackpill/libopencm3/lib/libopencm3_stm32f1.a(i2c_common_v1.o)
 .text.i2c_enable_dma
                0x0000000000000000        0xa /home/maddocks/src/i2c-star-stm32f411ceu6-blackpill/libopencm3/lib/libopencm3_stm32f1.a(i2c_common_v1.o)
 .text.i2c_disable_dma
                0x0000000000000000        0xa /home/maddocks/src/i2c-star-stm32f411ceu6-blackpill/libopencm3/lib/libopencm3_stm32f1.a(i2c_common_v1.o)
 .text.i2c_set_dma_last_transfer
                0x0000000000000000        0xa /home/maddocks/src/i2c-star-stm32f411ceu6-blackpill/libopencm3/lib/libopencm3_stm32f1.a(i2c_common_v1.o)
 .text.i2c_clear_dma_last_transfer
                0x0000000000000000        0xa /home/maddocks/src/i2c-star-stm32f411ceu6-blackpill/libopencm3/lib/libopencm3_stm32f1.a(i2c_common_v1.o)
 .text.i2c_transfer7
                0x0000000000000000       0xae /home/maddocks/src/i2c-star-stm32f411ceu6-blackpill/libopencm3/lib/libopencm3_stm32f1.a(i2c_common_v1.o)
 .text.i2c_set_speed
                0x0000000000000000       0x3c /home/maddocks/src/i2c-star-stm32f411ceu6-blackpill/libopencm3/lib/libopencm3_stm32f1.a(i2c_common_v1.o)
 .debug_macro   0x0000000000000000      0xa90 /home/maddocks/src/i2c-star-stm32f411ceu6-blackpill/libopencm3/lib/libopencm3_stm32f1.a(i2c_common_v1.o)
 .debug_macro   0x0000000000000000       0x1c /home/maddocks/src/i2c-star-stm32f411ceu6-blackpill/libopencm3/lib/libopencm3_stm32f1.a(i2c_common_v1.o)
 .debug_macro   0x0000000000000000      0x34e /home/maddocks/src/i2c-star-stm32f411ceu6-blackpill/libopencm3/lib/libopencm3_stm32f1.a(i2c_common_v1.o)
 .debug_macro   0x0000000000000000       0x22 /home/maddocks/src/i2c-star-stm32f411ceu6-blackpill/libopencm3/lib/libopencm3_stm32f1.a(i2c_common_v1.o)
 .debug_macro   0x0000000000000000       0xe8 /home/maddocks/src/i2c-star-stm32f411ceu6-blackpill/libopencm3/lib/libopencm3_stm32f1.a(i2c_common_v1.o)
 .debug_macro   0x0000000000000000       0x76 /home/maddocks/src/i2c-star-stm32f411ceu6-blackpill/libopencm3/lib/libopencm3_stm32f1.a(i2c_common_v1.o)
 .debug_macro   0x0000000000000000      0x1b4 /home/maddocks/src/i2c-star-stm32f411ceu6-blackpill/libopencm3/lib/libopencm3_stm32f1.a(i2c_common_v1.o)
 .group         0x0000000000000000        0xc /home/maddocks/src/i2c-star-stm32f411ceu6-blackpill/libopencm3/lib/libopencm3_stm32f1.a(rcc.o)
 .group         0x0000000000000000        0xc /home/maddocks/src/i2c-star-stm32f411ceu6-blackpill/libopencm3/lib/libopencm3_stm32f1.a(rcc.o)
 .group         0x0000000000000000        0xc /home/maddocks/src/i2c-star-stm32f411ceu6-blackpill/libopencm3/lib/libopencm3_stm32f1.a(rcc.o)
 .group         0x0000000000000000        0xc /home/maddocks/src/i2c-star-stm32f411ceu6-blackpill/libopencm3/lib/libopencm3_stm32f1.a(rcc.o)
 .group         0x0000000000000000        0xc /home/maddocks/src/i2c-star-stm32f411ceu6-blackpill/libopencm3/lib/libopencm3_stm32f1.a(rcc.o)
 .group         0x0000000000000000        0xc /home/maddocks/src/i2c-star-stm32f411ceu6-blackpill/libopencm3/lib/libopencm3_stm32f1.a(rcc.o)
 .group         0x0000000000000000        0xc /home/maddocks/src/i2c-star-stm32f411ceu6-blackpill/libopencm3/lib/libopencm3_stm32f1.a(rcc.o)
 .group         0x0000000000000000        0xc /home/maddocks/src/i2c-star-stm32f411ceu6-blackpill/libopencm3/lib/libopencm3_stm32f1.a(rcc.o)
 .group         0x0000000000000000        0xc /home/maddocks/src/i2c-star-stm32f411ceu6-blackpill/libopencm3/lib/libopencm3_stm32f1.a(rcc.o)
 .group         0x0000000000000000        0xc /home/maddocks/src/i2c-star-stm32f411ceu6-blackpill/libopencm3/lib/libopencm3_stm32f1.a(rcc.o)
 .group         0x0000000000000000        0xc /home/maddocks/src/i2c-star-stm32f411ceu6-blackpill/libopencm3/lib/libopencm3_stm32f1.a(rcc.o)
 .text          0x0000000000000000        0x0 /home/maddocks/src/i2c-star-stm32f411ceu6-blackpill/libopencm3/lib/libopencm3_stm32f1.a(rcc.o)
 .data          0x0000000000000000        0x0 /home/maddocks/src/i2c-star-stm32f411ceu6-blackpill/libopencm3/lib/libopencm3_stm32f1.a(rcc.o)
 .bss           0x0000000000000000        0x0 /home/maddocks/src/i2c-star-stm32f411ceu6-blackpill/libopencm3/lib/libopencm3_stm32f1.a(rcc.o)
 .text.rcc_osc_ready_int_clear
                0x0000000000000000       0x5c /home/maddocks/src/i2c-star-stm32f411ceu6-blackpill/libopencm3/lib/libopencm3_stm32f1.a(rcc.o)
 .text.rcc_osc_ready_int_enable
                0x0000000000000000       0x5c /home/maddocks/src/i2c-star-stm32f411ceu6-blackpill/libopencm3/lib/libopencm3_stm32f1.a(rcc.o)
 .text.rcc_osc_ready_int_disable
                0x0000000000000000       0x5c /home/maddocks/src/i2c-star-stm32f411ceu6-blackpill/libopencm3/lib/libopencm3_stm32f1.a(rcc.o)
 .text.rcc_osc_ready_int_flag
                0x0000000000000000       0x54 /home/maddocks/src/i2c-star-stm32f411ceu6-blackpill/libopencm3/lib/libopencm3_stm32f1.a(rcc.o)
 .text.rcc_css_int_clear
                0x0000000000000000       0x10 /home/maddocks/src/i2c-star-stm32f411ceu6-blackpill/libopencm3/lib/libopencm3_stm32f1.a(rcc.o)
 .text.rcc_css_int_flag
                0x0000000000000000       0x10 /home/maddocks/src/i2c-star-stm32f411ceu6-blackpill/libopencm3/lib/libopencm3_stm32f1.a(rcc.o)
 .text.rcc_osc_off
                0x0000000000000000       0x58 /home/maddocks/src/i2c-star-stm32f411ceu6-blackpill/libopencm3/lib/libopencm3_stm32f1.a(rcc.o)
 .text.rcc_css_enable
                0x0000000000000000       0x10 /home/maddocks/src/i2c-star-stm32f411ceu6-blackpill/libopencm3/lib/libopencm3_stm32f1.a(rcc.o)
 .text.rcc_css_disable
                0x0000000000000000       0x10 /home/maddocks/src/i2c-star-stm32f411ceu6-blackpill/libopencm3/lib/libopencm3_stm32f1.a(rcc.o)
 .text.rcc_set_pll2_multiplication_factor
                0x0000000000000000       0x14 /home/maddocks/src/i2c-star-stm32f411ceu6-blackpill/libopencm3/lib/libopencm3_stm32f1.a(rcc.o)
 .text.rcc_set_pll3_multiplication_factor
                0x0000000000000000       0x14 /home/maddocks/src/i2c-star-stm32f411ceu6-blackpill/libopencm3/lib/libopencm3_stm32f1.a(rcc.o)
 .text.rcc_rtc_clock_enabled_flag
                0x0000000000000000       0x10 /home/maddocks/src/i2c-star-stm32f411ceu6-blackpill/libopencm3/lib/libopencm3_stm32f1.a(rcc.o)
 .text.rcc_enable_rtc_clock
                0x0000000000000000       0x10 /home/maddocks/src/i2c-star-stm32f411ceu6-blackpill/libopencm3/lib/libopencm3_stm32f1.a(rcc.o)
 .text.rcc_set_rtc_clock_source
                0x0000000000000000       0x90 /home/maddocks/src/i2c-star-stm32f411ceu6-blackpill/libopencm3/lib/libopencm3_stm32f1.a(rcc.o)
 .text.rcc_set_usbpre
                0x0000000000000000       0x18 /home/maddocks/src/i2c-star-stm32f411ceu6-blackpill/libopencm3/lib/libopencm3_stm32f1.a(rcc.o)
 .text.rcc_set_prediv1
                0x0000000000000000       0x14 /home/maddocks/src/i2c-star-stm32f411ceu6-blackpill/libopencm3/lib/libopencm3_stm32f1.a(rcc.o)
 .text.rcc_set_prediv2
                0x0000000000000000       0x14 /home/maddocks/src/i2c-star-stm32f411ceu6-blackpill/libopencm3/lib/libopencm3_stm32f1.a(rcc.o)
 .text.rcc_set_prediv1_source
                0x0000000000000000       0x18 /home/maddocks/src/i2c-star-stm32f411ceu6-blackpill/libopencm3/lib/libopencm3_stm32f1.a(rcc.o)
 .text.rcc_system_clock_source
                0x0000000000000000       0x10 /home/maddocks/src/i2c-star-stm32f411ceu6-blackpill/libopencm3/lib/libopencm3_stm32f1.a(rcc.o)
 .text.rcc_clock_setup_in_hsi_out_64mhz
                0x0000000000000000       0x74 /home/maddocks/src/i2c-star-stm32f411ceu6-blackpill/libopencm3/lib/libopencm3_stm32f1.a(rcc.o)
 .text.rcc_clock_setup_in_hsi_out_48mhz
                0x0000000000000000       0x84 /home/maddocks/src/i2c-star-stm32f411ceu6-blackpill/libopencm3/lib/libopencm3_stm32f1.a(rcc.o)
 .text.rcc_clock_setup_in_hsi_out_24mhz
                0x0000000000000000       0x70 /home/maddocks/src/i2c-star-stm32f411ceu6-blackpill/libopencm3/lib/libopencm3_stm32f1.a(rcc.o)
 .text.rcc_clock_setup_in_hse_8mhz_out_24mhz
                0x0000000000000000       0x88 /home/maddocks/src/i2c-star-stm32f411ceu6-blackpill/libopencm3/lib/libopencm3_stm32f1.a(rcc.o)
 .text.rcc_clock_setup_in_hse_12mhz_out_72mhz
                0x0000000000000000       0x8c /home/maddocks/src/i2c-star-stm32f411ceu6-blackpill/libopencm3/lib/libopencm3_stm32f1.a(rcc.o)
 .text.rcc_clock_setup_in_hse_16mhz_out_72mhz
                0x0000000000000000       0x8c /home/maddocks/src/i2c-star-stm32f411ceu6-blackpill/libopencm3/lib/libopencm3_stm32f1.a(rcc.o)
 .text.rcc_clock_setup_in_hse_25mhz_out_72mhz
                0x0000000000000000       0xac /home/maddocks/src/i2c-star-stm32f411ceu6-blackpill/libopencm3/lib/libopencm3_stm32f1.a(rcc.o)
 .text.rcc_backupdomain_reset
                0x0000000000000000       0x18 /home/maddocks/src/i2c-star-stm32f411ceu6-blackpill/libopencm3/lib/libopencm3_stm32f1.a(rcc.o)
 .debug_macro   0x0000000000000000      0xa90 /home/maddocks/src/i2c-star-stm32f411ceu6-blackpill/libopencm3/lib/libopencm3_stm32f1.a(rcc.o)
 .debug_macro   0x0000000000000000       0x1c /home/maddocks/src/i2c-star-stm32f411ceu6-blackpill/libopencm3/lib/libopencm3_stm32f1.a(rcc.o)
 .debug_macro   0x0000000000000000      0x34e /home/maddocks/src/i2c-star-stm32f411ceu6-blackpill/libopencm3/lib/libopencm3_stm32f1.a(rcc.o)
 .debug_macro   0x0000000000000000       0x22 /home/maddocks/src/i2c-star-stm32f411ceu6-blackpill/libopencm3/lib/libopencm3_stm32f1.a(rcc.o)
 .debug_macro   0x0000000000000000       0xe8 /home/maddocks/src/i2c-star-stm32f411ceu6-blackpill/libopencm3/lib/libopencm3_stm32f1.a(rcc.o)
 .debug_macro   0x0000000000000000       0x76 /home/maddocks/src/i2c-star-stm32f411ceu6-blackpill/libopencm3/lib/libopencm3_stm32f1.a(rcc.o)
 .debug_macro   0x0000000000000000      0x1b4 /home/maddocks/src/i2c-star-stm32f411ceu6-blackpill/libopencm3/lib/libopencm3_stm32f1.a(rcc.o)
 .debug_macro   0x0000000000000000      0x82c /home/maddocks/src/i2c-star-stm32f411ceu6-blackpill/libopencm3/lib/libopencm3_stm32f1.a(rcc.o)
 .group         0x0000000000000000        0xc /home/maddocks/src/i2c-star-stm32f411ceu6-blackpill/libopencm3/lib/libopencm3_stm32f1.a(rcc_common_all.o)
 .group         0x0000000000000000        0xc /home/maddocks/src/i2c-star-stm32f411ceu6-blackpill/libopencm3/lib/libopencm3_stm32f1.a(rcc_common_all.o)
 .group         0x0000000000000000        0xc /home/maddocks/src/i2c-star-stm32f411ceu6-blackpill/libopencm3/lib/libopencm3_stm32f1.a(rcc_common_all.o)
 .group         0x0000000000000000        0xc /home/maddocks/src/i2c-star-stm32f411ceu6-blackpill/libopencm3/lib/libopencm3_stm32f1.a(rcc_common_all.o)
 .group         0x0000000000000000        0xc /home/maddocks/src/i2c-star-stm32f411ceu6-blackpill/libopencm3/lib/libopencm3_stm32f1.a(rcc_common_all.o)
 .group         0x0000000000000000        0xc /home/maddocks/src/i2c-star-stm32f411ceu6-blackpill/libopencm3/lib/libopencm3_stm32f1.a(rcc_common_all.o)
 .group         0x0000000000000000        0xc /home/maddocks/src/i2c-star-stm32f411ceu6-blackpill/libopencm3/lib/libopencm3_stm32f1.a(rcc_common_all.o)
 .group         0x0000000000000000        0xc /home/maddocks/src/i2c-star-stm32f411ceu6-blackpill/libopencm3/lib/libopencm3_stm32f1.a(rcc_common_all.o)
 .text          0x0000000000000000        0x0 /home/maddocks/src/i2c-star-stm32f411ceu6-blackpill/libopencm3/lib/libopencm3_stm32f1.a(rcc_common_all.o)
 .data          0x0000000000000000        0x0 /home/maddocks/src/i2c-star-stm32f411ceu6-blackpill/libopencm3/lib/libopencm3_stm32f1.a(rcc_common_all.o)
 .bss           0x0000000000000000        0x0 /home/maddocks/src/i2c-star-stm32f411ceu6-blackpill/libopencm3/lib/libopencm3_stm32f1.a(rcc_common_all.o)
 .text.rcc_peripheral_enable_clock
                0x0000000000000000        0x8 /home/maddocks/src/i2c-star-stm32f411ceu6-blackpill/libopencm3/lib/libopencm3_stm32f1.a(rcc_common_all.o)
 .text.rcc_peripheral_disable_clock
                0x0000000000000000        0xa /home/maddocks/src/i2c-star-stm32f411ceu6-blackpill/libopencm3/lib/libopencm3_stm32f1.a(rcc_common_all.o)
 .text.rcc_peripheral_reset
                0x0000000000000000        0x8 /home/maddocks/src/i2c-star-stm32f411ceu6-blackpill/libopencm3/lib/libopencm3_stm32f1.a(rcc_common_all.o)
 .text.rcc_peripheral_clear_reset
                0x0000000000000000        0xa /home/maddocks/src/i2c-star-stm32f411ceu6-blackpill/libopencm3/lib/libopencm3_stm32f1.a(rcc_common_all.o)
 .text.rcc_periph_clock_disable
                0x0000000000000000       0x1e /home/maddocks/src/i2c-star-stm32f411ceu6-blackpill/libopencm3/lib/libopencm3_stm32f1.a(rcc_common_all.o)
 .text.rcc_periph_reset_hold
                0x0000000000000000        0x4 /home/maddocks/src/i2c-star-stm32f411ceu6-blackpill/libopencm3/lib/libopencm3_stm32f1.a(rcc_common_all.o)
 .text.rcc_periph_reset_release
                0x0000000000000000        0x4 /home/maddocks/src/i2c-star-stm32f411ceu6-blackpill/libopencm3/lib/libopencm3_stm32f1.a(rcc_common_all.o)
 .text.rcc_set_mco
                0x0000000000000000       0x14 /home/maddocks/src/i2c-star-stm32f411ceu6-blackpill/libopencm3/lib/libopencm3_stm32f1.a(rcc_common_all.o)
 .text.rcc_osc_bypass_enable
                0x0000000000000000       0x28 /home/maddocks/src/i2c-star-stm32f411ceu6-blackpill/libopencm3/lib/libopencm3_stm32f1.a(rcc_common_all.o)
 .text.rcc_osc_bypass_disable
                0x0000000000000000       0x28 /home/maddocks/src/i2c-star-stm32f411ceu6-blackpill/libopencm3/lib/libopencm3_stm32f1.a(rcc_common_all.o)
 .debug_macro   0x0000000000000000      0xa90 /home/maddocks/src/i2c-star-stm32f411ceu6-blackpill/libopencm3/lib/libopencm3_stm32f1.a(rcc_common_all.o)
 .debug_macro   0x0000000000000000       0x1c /home/maddocks/src/i2c-star-stm32f411ceu6-blackpill/libopencm3/lib/libopencm3_stm32f1.a(rcc_common_all.o)
 .debug_macro   0x0000000000000000      0x34e /home/maddocks/src/i2c-star-stm32f411ceu6-blackpill/libopencm3/lib/libopencm3_stm32f1.a(rcc_common_all.o)
 .debug_macro   0x0000000000000000       0x22 /home/maddocks/src/i2c-star-stm32f411ceu6-blackpill/libopencm3/lib/libopencm3_stm32f1.a(rcc_common_all.o)
 .debug_macro   0x0000000000000000       0xe8 /home/maddocks/src/i2c-star-stm32f411ceu6-blackpill/libopencm3/lib/libopencm3_stm32f1.a(rcc_common_all.o)
 .debug_macro   0x0000000000000000       0x76 /home/maddocks/src/i2c-star-stm32f411ceu6-blackpill/libopencm3/lib/libopencm3_stm32f1.a(rcc_common_all.o)
 .debug_macro   0x0000000000000000      0x1b4 /home/maddocks/src/i2c-star-stm32f411ceu6-blackpill/libopencm3/lib/libopencm3_stm32f1.a(rcc_common_all.o)
 .debug_macro   0x0000000000000000      0x82c /home/maddocks/src/i2c-star-stm32f411ceu6-blackpill/libopencm3/lib/libopencm3_stm32f1.a(rcc_common_all.o)
 .group         0x0000000000000000        0xc /home/maddocks/src/i2c-star-stm32f411ceu6-blackpill/libopencm3/lib/libopencm3_stm32f1.a(usart_common_all.o)
 .group         0x0000000000000000        0xc /home/maddocks/src/i2c-star-stm32f411ceu6-blackpill/libopencm3/lib/libopencm3_stm32f1.a(usart_common_all.o)
 .group         0x0000000000000000        0xc /home/maddocks/src/i2c-star-stm32f411ceu6-blackpill/libopencm3/lib/libopencm3_stm32f1.a(usart_common_all.o)
 .group         0x0000000000000000        0xc /home/maddocks/src/i2c-star-stm32f411ceu6-blackpill/libopencm3/lib/libopencm3_stm32f1.a(usart_common_all.o)
 .group         0x0000000000000000        0xc /home/maddocks/src/i2c-star-stm32f411ceu6-blackpill/libopencm3/lib/libopencm3_stm32f1.a(usart_common_all.o)
 .group         0x0000000000000000        0xc /home/maddocks/src/i2c-star-stm32f411ceu6-blackpill/libopencm3/lib/libopencm3_stm32f1.a(usart_common_all.o)
 .group         0x0000000000000000        0xc /home/maddocks/src/i2c-star-stm32f411ceu6-blackpill/libopencm3/lib/libopencm3_stm32f1.a(usart_common_all.o)
 .group         0x0000000000000000        0xc /home/maddocks/src/i2c-star-stm32f411ceu6-blackpill/libopencm3/lib/libopencm3_stm32f1.a(usart_common_all.o)
 .group         0x0000000000000000        0xc /home/maddocks/src/i2c-star-stm32f411ceu6-blackpill/libopencm3/lib/libopencm3_stm32f1.a(usart_common_all.o)
 .group         0x0000000000000000        0xc /home/maddocks/src/i2c-star-stm32f411ceu6-blackpill/libopencm3/lib/libopencm3_stm32f1.a(usart_common_all.o)
 .text          0x0000000000000000        0x0 /home/maddocks/src/i2c-star-stm32f411ceu6-blackpill/libopencm3/lib/libopencm3_stm32f1.a(usart_common_all.o)
 .data          0x0000000000000000        0x0 /home/maddocks/src/i2c-star-stm32f411ceu6-blackpill/libopencm3/lib/libopencm3_stm32f1.a(usart_common_all.o)
 .bss           0x0000000000000000        0x0 /home/maddocks/src/i2c-star-stm32f411ceu6-blackpill/libopencm3/lib/libopencm3_stm32f1.a(usart_common_all.o)
 .text.usart_disable
                0x0000000000000000        0xa /home/maddocks/src/i2c-star-stm32f411ceu6-blackpill/libopencm3/lib/libopencm3_stm32f1.a(usart_common_all.o)
 .text.usart_send_blocking
                0x0000000000000000       0x16 /home/maddocks/src/i2c-star-stm32f411ceu6-blackpill/libopencm3/lib/libopencm3_stm32f1.a(usart_common_all.o)
 .text.usart_recv_blocking
                0x0000000000000000       0x12 /home/maddocks/src/i2c-star-stm32f411ceu6-blackpill/libopencm3/lib/libopencm3_stm32f1.a(usart_common_all.o)
 .text.usart_enable_rx_dma
                0x0000000000000000        0xa /home/maddocks/src/i2c-star-stm32f411ceu6-blackpill/libopencm3/lib/libopencm3_stm32f1.a(usart_common_all.o)
 .text.usart_disable_rx_dma
                0x0000000000000000        0xa /home/maddocks/src/i2c-star-stm32f411ceu6-blackpill/libopencm3/lib/libopencm3_stm32f1.a(usart_common_all.o)
 .text.usart_enable_tx_dma
                0x0000000000000000        0xa /home/maddocks/src/i2c-star-stm32f411ceu6-blackpill/libopencm3/lib/libopencm3_stm32f1.a(usart_common_all.o)
 .text.usart_disable_tx_dma
                0x0000000000000000        0xa /home/maddocks/src/i2c-star-stm32f411ceu6-blackpill/libopencm3/lib/libopencm3_stm32f1.a(usart_common_all.o)
 .text.usart_enable_rx_interrupt
                0x0000000000000000        0xa /home/maddocks/src/i2c-star-stm32f411ceu6-blackpill/libopencm3/lib/libopencm3_stm32f1.a(usart_common_all.o)
 .text.usart_disable_rx_interrupt
                0x0000000000000000        0xa /home/maddocks/src/i2c-star-stm32f411ceu6-blackpill/libopencm3/lib/libopencm3_stm32f1.a(usart_common_all.o)
 .text.usart_enable_tx_interrupt
                0x0000000000000000        0xa /home/maddocks/src/i2c-star-stm32f411ceu6-blackpill/libopencm3/lib/libopencm3_stm32f1.a(usart_common_all.o)
 .text.usart_disable_tx_interrupt
                0x0000000000000000        0xa /home/maddocks/src/i2c-star-stm32f411ceu6-blackpill/libopencm3/lib/libopencm3_stm32f1.a(usart_common_all.o)
 .text.usart_enable_error_interrupt
                0x0000000000000000        0xa /home/maddocks/src/i2c-star-stm32f411ceu6-blackpill/libopencm3/lib/libopencm3_stm32f1.a(usart_common_all.o)
 .text.usart_disable_error_interrupt
                0x0000000000000000        0xa /home/maddocks/src/i2c-star-stm32f411ceu6-blackpill/libopencm3/lib/libopencm3_stm32f1.a(usart_common_all.o)
 .debug_macro   0x0000000000000000      0xa90 /home/maddocks/src/i2c-star-stm32f411ceu6-blackpill/libopencm3/lib/libopencm3_stm32f1.a(usart_common_all.o)
 .debug_macro   0x0000000000000000       0x1c /home/maddocks/src/i2c-star-stm32f411ceu6-blackpill/libopencm3/lib/libopencm3_stm32f1.a(usart_common_all.o)
 .debug_macro   0x0000000000000000      0x34e /home/maddocks/src/i2c-star-stm32f411ceu6-blackpill/libopencm3/lib/libopencm3_stm32f1.a(usart_common_all.o)
 .debug_macro   0x0000000000000000       0x22 /home/maddocks/src/i2c-star-stm32f411ceu6-blackpill/libopencm3/lib/libopencm3_stm32f1.a(usart_common_all.o)
 .debug_macro   0x0000000000000000       0xe8 /home/maddocks/src/i2c-star-stm32f411ceu6-blackpill/libopencm3/lib/libopencm3_stm32f1.a(usart_common_all.o)
 .debug_macro   0x0000000000000000       0x76 /home/maddocks/src/i2c-star-stm32f411ceu6-blackpill/libopencm3/lib/libopencm3_stm32f1.a(usart_common_all.o)
 .debug_macro   0x0000000000000000      0x1b4 /home/maddocks/src/i2c-star-stm32f411ceu6-blackpill/libopencm3/lib/libopencm3_stm32f1.a(usart_common_all.o)
 .debug_macro   0x0000000000000000      0x82c /home/maddocks/src/i2c-star-stm32f411ceu6-blackpill/libopencm3/lib/libopencm3_stm32f1.a(usart_common_all.o)
 .group         0x0000000000000000        0xc /home/maddocks/src/i2c-star-stm32f411ceu6-blackpill/libopencm3/lib/libopencm3_stm32f1.a(usart_common_f124.o)
 .group         0x0000000000000000        0xc /home/maddocks/src/i2c-star-stm32f411ceu6-blackpill/libopencm3/lib/libopencm3_stm32f1.a(usart_common_f124.o)
 .group         0x0000000000000000        0xc /home/maddocks/src/i2c-star-stm32f411ceu6-blackpill/libopencm3/lib/libopencm3_stm32f1.a(usart_common_f124.o)
 .group         0x0000000000000000        0xc /home/maddocks/src/i2c-star-stm32f411ceu6-blackpill/libopencm3/lib/libopencm3_stm32f1.a(usart_common_f124.o)
 .group         0x0000000000000000        0xc /home/maddocks/src/i2c-star-stm32f411ceu6-blackpill/libopencm3/lib/libopencm3_stm32f1.a(usart_common_f124.o)
 .group         0x0000000000000000        0xc /home/maddocks/src/i2c-star-stm32f411ceu6-blackpill/libopencm3/lib/libopencm3_stm32f1.a(usart_common_f124.o)
 .group         0x0000000000000000        0xc /home/maddocks/src/i2c-star-stm32f411ceu6-blackpill/libopencm3/lib/libopencm3_stm32f1.a(usart_common_f124.o)
 .group         0x0000000000000000        0xc /home/maddocks/src/i2c-star-stm32f411ceu6-blackpill/libopencm3/lib/libopencm3_stm32f1.a(usart_common_f124.o)
 .group         0x0000000000000000        0xc /home/maddocks/src/i2c-star-stm32f411ceu6-blackpill/libopencm3/lib/libopencm3_stm32f1.a(usart_common_f124.o)
 .group         0x0000000000000000        0xc /home/maddocks/src/i2c-star-stm32f411ceu6-blackpill/libopencm3/lib/libopencm3_stm32f1.a(usart_common_f124.o)
 .text          0x0000000000000000        0x0 /home/maddocks/src/i2c-star-stm32f411ceu6-blackpill/libopencm3/lib/libopencm3_stm32f1.a(usart_common_f124.o)
 .data          0x0000000000000000        0x0 /home/maddocks/src/i2c-star-stm32f411ceu6-blackpill/libopencm3/lib/libopencm3_stm32f1.a(usart_common_f124.o)
 .bss           0x0000000000000000        0x0 /home/maddocks/src/i2c-star-stm32f411ceu6-blackpill/libopencm3/lib/libopencm3_stm32f1.a(usart_common_f124.o)
 .text.usart_wait_send_ready
                0x0000000000000000        0x8 /home/maddocks/src/i2c-star-stm32f411ceu6-blackpill/libopencm3/lib/libopencm3_stm32f1.a(usart_common_f124.o)
 .text.usart_wait_recv_ready
                0x0000000000000000        0x8 /home/maddocks/src/i2c-star-stm32f411ceu6-blackpill/libopencm3/lib/libopencm3_stm32f1.a(usart_common_f124.o)
 .text.usart_get_flag
                0x0000000000000000        0xc /home/maddocks/src/i2c-star-stm32f411ceu6-blackpill/libopencm3/lib/libopencm3_stm32f1.a(usart_common_f124.o)
 .debug_macro   0x0000000000000000      0xa90 /home/maddocks/src/i2c-star-stm32f411ceu6-blackpill/libopencm3/lib/libopencm3_stm32f1.a(usart_common_f124.o)
 .debug_macro   0x0000000000000000       0x1c /home/maddocks/src/i2c-star-stm32f411ceu6-blackpill/libopencm3/lib/libopencm3_stm32f1.a(usart_common_f124.o)
 .debug_macro   0x0000000000000000      0x34e /home/maddocks/src/i2c-star-stm32f411ceu6-blackpill/libopencm3/lib/libopencm3_stm32f1.a(usart_common_f124.o)
 .debug_macro   0x0000000000000000       0x22 /home/maddocks/src/i2c-star-stm32f411ceu6-blackpill/libopencm3/lib/libopencm3_stm32f1.a(usart_common_f124.o)
 .debug_macro   0x0000000000000000       0xe8 /home/maddocks/src/i2c-star-stm32f411ceu6-blackpill/libopencm3/lib/libopencm3_stm32f1.a(usart_common_f124.o)
 .debug_macro   0x0000000000000000       0x76 /home/maddocks/src/i2c-star-stm32f411ceu6-blackpill/libopencm3/lib/libopencm3_stm32f1.a(usart_common_f124.o)
 .debug_macro   0x0000000000000000      0x1b4 /home/maddocks/src/i2c-star-stm32f411ceu6-blackpill/libopencm3/lib/libopencm3_stm32f1.a(usart_common_f124.o)
 .debug_macro   0x0000000000000000       0x94 /home/maddocks/src/i2c-star-stm32f411ceu6-blackpill/libopencm3/lib/libopencm3_stm32f1.a(usart_common_f124.o)
 .debug_macro   0x0000000000000000      0x29e /home/maddocks/src/i2c-star-stm32f411ceu6-blackpill/libopencm3/lib/libopencm3_stm32f1.a(usart_common_f124.o)
 .debug_macro   0x0000000000000000      0x82c /home/maddocks/src/i2c-star-stm32f411ceu6-blackpill/libopencm3/lib/libopencm3_stm32f1.a(usart_common_f124.o)
 .group         0x0000000000000000        0xc /home/maddocks/src/i2c-star-stm32f411ceu6-blackpill/libopencm3/lib/libopencm3_stm32f1.a(usb.o)
 .group         0x0000000000000000        0xc /home/maddocks/src/i2c-star-stm32f411ceu6-blackpill/libopencm3/lib/libopencm3_stm32f1.a(usb.o)
 .group         0x0000000000000000        0xc /home/maddocks/src/i2c-star-stm32f411ceu6-blackpill/libopencm3/lib/libopencm3_stm32f1.a(usb.o)
 .group         0x0000000000000000        0xc /home/maddocks/src/i2c-star-stm32f411ceu6-blackpill/libopencm3/lib/libopencm3_stm32f1.a(usb.o)
 .group         0x0000000000000000        0xc /home/maddocks/src/i2c-star-stm32f411ceu6-blackpill/libopencm3/lib/libopencm3_stm32f1.a(usb.o)
 .group         0x0000000000000000        0xc /home/maddocks/src/i2c-star-stm32f411ceu6-blackpill/libopencm3/lib/libopencm3_stm32f1.a(usb.o)
 .group         0x0000000000000000        0xc /home/maddocks/src/i2c-star-stm32f411ceu6-blackpill/libopencm3/lib/libopencm3_stm32f1.a(usb.o)
 .group         0x0000000000000000        0xc /home/maddocks/src/i2c-star-stm32f411ceu6-blackpill/libopencm3/lib/libopencm3_stm32f1.a(usb.o)
 .group         0x0000000000000000        0xc /home/maddocks/src/i2c-star-stm32f411ceu6-blackpill/libopencm3/lib/libopencm3_stm32f1.a(usb.o)
 .group         0x0000000000000000        0xc /home/maddocks/src/i2c-star-stm32f411ceu6-blackpill/libopencm3/lib/libopencm3_stm32f1.a(usb.o)
 .group         0x0000000000000000        0xc /home/maddocks/src/i2c-star-stm32f411ceu6-blackpill/libopencm3/lib/libopencm3_stm32f1.a(usb.o)
 .group         0x0000000000000000        0xc /home/maddocks/src/i2c-star-stm32f411ceu6-blackpill/libopencm3/lib/libopencm3_stm32f1.a(usb.o)
 .group         0x0000000000000000        0xc /home/maddocks/src/i2c-star-stm32f411ceu6-blackpill/libopencm3/lib/libopencm3_stm32f1.a(usb.o)
 .group         0x0000000000000000        0xc /home/maddocks/src/i2c-star-stm32f411ceu6-blackpill/libopencm3/lib/libopencm3_stm32f1.a(usb.o)
 .group         0x0000000000000000        0xc /home/maddocks/src/i2c-star-stm32f411ceu6-blackpill/libopencm3/lib/libopencm3_stm32f1.a(usb.o)
 .group         0x0000000000000000        0xc /home/maddocks/src/i2c-star-stm32f411ceu6-blackpill/libopencm3/lib/libopencm3_stm32f1.a(usb.o)
 .group         0x0000000000000000        0xc /home/maddocks/src/i2c-star-stm32f411ceu6-blackpill/libopencm3/lib/libopencm3_stm32f1.a(usb.o)
 .group         0x0000000000000000        0xc /home/maddocks/src/i2c-star-stm32f411ceu6-blackpill/libopencm3/lib/libopencm3_stm32f1.a(usb.o)
 .group         0x0000000000000000        0xc /home/maddocks/src/i2c-star-stm32f411ceu6-blackpill/libopencm3/lib/libopencm3_stm32f1.a(usb.o)
 .group         0x0000000000000000        0xc /home/maddocks/src/i2c-star-stm32f411ceu6-blackpill/libopencm3/lib/libopencm3_stm32f1.a(usb.o)
 .group         0x0000000000000000        0xc /home/maddocks/src/i2c-star-stm32f411ceu6-blackpill/libopencm3/lib/libopencm3_stm32f1.a(usb.o)
 .group         0x0000000000000000        0xc /home/maddocks/src/i2c-star-stm32f411ceu6-blackpill/libopencm3/lib/libopencm3_stm32f1.a(usb.o)
 .group         0x0000000000000000        0xc /home/maddocks/src/i2c-star-stm32f411ceu6-blackpill/libopencm3/lib/libopencm3_stm32f1.a(usb.o)
 .group         0x0000000000000000        0xc /home/maddocks/src/i2c-star-stm32f411ceu6-blackpill/libopencm3/lib/libopencm3_stm32f1.a(usb.o)
 .group         0x0000000000000000        0xc /home/maddocks/src/i2c-star-stm32f411ceu6-blackpill/libopencm3/lib/libopencm3_stm32f1.a(usb.o)
 .text          0x0000000000000000        0x0 /home/maddocks/src/i2c-star-stm32f411ceu6-blackpill/libopencm3/lib/libopencm3_stm32f1.a(usb.o)
 .data          0x0000000000000000        0x0 /home/maddocks/src/i2c-star-stm32f411ceu6-blackpill/libopencm3/lib/libopencm3_stm32f1.a(usb.o)
 .bss           0x0000000000000000        0x0 /home/maddocks/src/i2c-star-stm32f411ceu6-blackpill/libopencm3/lib/libopencm3_stm32f1.a(usb.o)
 .text.usbd_register_reset_callback
                0x0000000000000000        0x4 /home/maddocks/src/i2c-star-stm32f411ceu6-blackpill/libopencm3/lib/libopencm3_stm32f1.a(usb.o)
 .text.usbd_register_suspend_callback
                0x0000000000000000        0x4 /home/maddocks/src/i2c-star-stm32f411ceu6-blackpill/libopencm3/lib/libopencm3_stm32f1.a(usb.o)
 .text.usbd_register_resume_callback
                0x0000000000000000        0x4 /home/maddocks/src/i2c-star-stm32f411ceu6-blackpill/libopencm3/lib/libopencm3_stm32f1.a(usb.o)
 .text.usbd_register_sof_callback
                0x0000000000000000        0x4 /home/maddocks/src/i2c-star-stm32f411ceu6-blackpill/libopencm3/lib/libopencm3_stm32f1.a(usb.o)
 .text.usbd_disconnect
                0x0000000000000000        0xc /home/maddocks/src/i2c-star-stm32f411ceu6-blackpill/libopencm3/lib/libopencm3_stm32f1.a(usb.o)
 .debug_macro   0x0000000000000000      0xa90 /home/maddocks/src/i2c-star-stm32f411ceu6-blackpill/libopencm3/lib/libopencm3_stm32f1.a(usb.o)
 .debug_macro   0x0000000000000000      0x16d /home/maddocks/src/i2c-star-stm32f411ceu6-blackpill/libopencm3/lib/libopencm3_stm32f1.a(usb.o)
 .debug_macro   0x0000000000000000      0x34e /home/maddocks/src/i2c-star-stm32f411ceu6-blackpill/libopencm3/lib/libopencm3_stm32f1.a(usb.o)
 .debug_macro   0x0000000000000000       0x1c /home/maddocks/src/i2c-star-stm32f411ceu6-blackpill/libopencm3/lib/libopencm3_stm32f1.a(usb.o)
 .debug_macro   0x0000000000000000       0x22 /home/maddocks/src/i2c-star-stm32f411ceu6-blackpill/libopencm3/lib/libopencm3_stm32f1.a(usb.o)
 .debug_macro   0x0000000000000000       0xe8 /home/maddocks/src/i2c-star-stm32f411ceu6-blackpill/libopencm3/lib/libopencm3_stm32f1.a(usb.o)
 .group         0x0000000000000000        0xc /home/maddocks/src/i2c-star-stm32f411ceu6-blackpill/libopencm3/lib/libopencm3_stm32f1.a(usb_control.o)
 .group         0x0000000000000000        0xc /home/maddocks/src/i2c-star-stm32f411ceu6-blackpill/libopencm3/lib/libopencm3_stm32f1.a(usb_control.o)
 .group         0x0000000000000000        0xc /home/maddocks/src/i2c-star-stm32f411ceu6-blackpill/libopencm3/lib/libopencm3_stm32f1.a(usb_control.o)
 .group         0x0000000000000000        0xc /home/maddocks/src/i2c-star-stm32f411ceu6-blackpill/libopencm3/lib/libopencm3_stm32f1.a(usb_control.o)
 .group         0x0000000000000000        0xc /home/maddocks/src/i2c-star-stm32f411ceu6-blackpill/libopencm3/lib/libopencm3_stm32f1.a(usb_control.o)
 .group         0x0000000000000000        0xc /home/maddocks/src/i2c-star-stm32f411ceu6-blackpill/libopencm3/lib/libopencm3_stm32f1.a(usb_control.o)
 .group         0x0000000000000000        0xc /home/maddocks/src/i2c-star-stm32f411ceu6-blackpill/libopencm3/lib/libopencm3_stm32f1.a(usb_control.o)
 .group         0x0000000000000000        0xc /home/maddocks/src/i2c-star-stm32f411ceu6-blackpill/libopencm3/lib/libopencm3_stm32f1.a(usb_control.o)
 .group         0x0000000000000000        0xc /home/maddocks/src/i2c-star-stm32f411ceu6-blackpill/libopencm3/lib/libopencm3_stm32f1.a(usb_control.o)
 .group         0x0000000000000000        0xc /home/maddocks/src/i2c-star-stm32f411ceu6-blackpill/libopencm3/lib/libopencm3_stm32f1.a(usb_control.o)
 .group         0x0000000000000000        0xc /home/maddocks/src/i2c-star-stm32f411ceu6-blackpill/libopencm3/lib/libopencm3_stm32f1.a(usb_control.o)
 .group         0x0000000000000000        0xc /home/maddocks/src/i2c-star-stm32f411ceu6-blackpill/libopencm3/lib/libopencm3_stm32f1.a(usb_control.o)
 .group         0x0000000000000000        0xc /home/maddocks/src/i2c-star-stm32f411ceu6-blackpill/libopencm3/lib/libopencm3_stm32f1.a(usb_control.o)
 .group         0x0000000000000000        0xc /home/maddocks/src/i2c-star-stm32f411ceu6-blackpill/libopencm3/lib/libopencm3_stm32f1.a(usb_control.o)
 .group         0x0000000000000000        0xc /home/maddocks/src/i2c-star-stm32f411ceu6-blackpill/libopencm3/lib/libopencm3_stm32f1.a(usb_control.o)
 .group         0x0000000000000000        0xc /home/maddocks/src/i2c-star-stm32f411ceu6-blackpill/libopencm3/lib/libopencm3_stm32f1.a(usb_control.o)
 .group         0x0000000000000000        0xc /home/maddocks/src/i2c-star-stm32f411ceu6-blackpill/libopencm3/lib/libopencm3_stm32f1.a(usb_control.o)
 .group         0x0000000000000000        0xc /home/maddocks/src/i2c-star-stm32f411ceu6-blackpill/libopencm3/lib/libopencm3_stm32f1.a(usb_control.o)
 .group         0x0000000000000000        0xc /home/maddocks/src/i2c-star-stm32f411ceu6-blackpill/libopencm3/lib/libopencm3_stm32f1.a(usb_control.o)
 .group         0x0000000000000000        0xc /home/maddocks/src/i2c-star-stm32f411ceu6-blackpill/libopencm3/lib/libopencm3_stm32f1.a(usb_control.o)
 .group         0x0000000000000000        0xc /home/maddocks/src/i2c-star-stm32f411ceu6-blackpill/libopencm3/lib/libopencm3_stm32f1.a(usb_control.o)
 .group         0x0000000000000000        0xc /home/maddocks/src/i2c-star-stm32f411ceu6-blackpill/libopencm3/lib/libopencm3_stm32f1.a(usb_control.o)
 .group         0x0000000000000000        0xc /home/maddocks/src/i2c-star-stm32f411ceu6-blackpill/libopencm3/lib/libopencm3_stm32f1.a(usb_control.o)
 .group         0x0000000000000000        0xc /home/maddocks/src/i2c-star-stm32f411ceu6-blackpill/libopencm3/lib/libopencm3_stm32f1.a(usb_control.o)
 .group         0x0000000000000000        0xc /home/maddocks/src/i2c-star-stm32f411ceu6-blackpill/libopencm3/lib/libopencm3_stm32f1.a(usb_control.o)
 .group         0x0000000000000000        0xc /home/maddocks/src/i2c-star-stm32f411ceu6-blackpill/libopencm3/lib/libopencm3_stm32f1.a(usb_control.o)
 .text          0x0000000000000000        0x0 /home/maddocks/src/i2c-star-stm32f411ceu6-blackpill/libopencm3/lib/libopencm3_stm32f1.a(usb_control.o)
 .data          0x0000000000000000        0x0 /home/maddocks/src/i2c-star-stm32f411ceu6-blackpill/libopencm3/lib/libopencm3_stm32f1.a(usb_control.o)
 .bss           0x0000000000000000        0x0 /home/maddocks/src/i2c-star-stm32f411ceu6-blackpill/libopencm3/lib/libopencm3_stm32f1.a(usb_control.o)
 .debug_macro   0x0000000000000000      0xa90 /home/maddocks/src/i2c-star-stm32f411ceu6-blackpill/libopencm3/lib/libopencm3_stm32f1.a(usb_control.o)
 .debug_macro   0x0000000000000000       0x18 /home/maddocks/src/i2c-star-stm32f411ceu6-blackpill/libopencm3/lib/libopencm3_stm32f1.a(usb_control.o)
 .debug_macro   0x0000000000000000       0x22 /home/maddocks/src/i2c-star-stm32f411ceu6-blackpill/libopencm3/lib/libopencm3_stm32f1.a(usb_control.o)
 .debug_macro   0x0000000000000000       0x52 /home/maddocks/src/i2c-star-stm32f411ceu6-blackpill/libopencm3/lib/libopencm3_stm32f1.a(usb_control.o)
 .debug_macro   0x0000000000000000       0x5c /home/maddocks/src/i2c-star-stm32f411ceu6-blackpill/libopencm3/lib/libopencm3_stm32f1.a(usb_control.o)
 .debug_macro   0x0000000000000000       0x35 /home/maddocks/src/i2c-star-stm32f411ceu6-blackpill/libopencm3/lib/libopencm3_stm32f1.a(usb_control.o)
 .debug_macro   0x0000000000000000       0x34 /home/maddocks/src/i2c-star-stm32f411ceu6-blackpill/libopencm3/lib/libopencm3_stm32f1.a(usb_control.o)
 .debug_macro   0x0000000000000000       0x16 /home/maddocks/src/i2c-star-stm32f411ceu6-blackpill/libopencm3/lib/libopencm3_stm32f1.a(usb_control.o)
 .debug_macro   0x0000000000000000       0x43 /home/maddocks/src/i2c-star-stm32f411ceu6-blackpill/libopencm3/lib/libopencm3_stm32f1.a(usb_control.o)
 .debug_macro   0x0000000000000000       0x57 /home/maddocks/src/i2c-star-stm32f411ceu6-blackpill/libopencm3/lib/libopencm3_stm32f1.a(usb_control.o)
 .debug_macro   0x0000000000000000       0x34 /home/maddocks/src/i2c-star-stm32f411ceu6-blackpill/libopencm3/lib/libopencm3_stm32f1.a(usb_control.o)
 .debug_macro   0x0000000000000000       0x10 /home/maddocks/src/i2c-star-stm32f411ceu6-blackpill/libopencm3/lib/libopencm3_stm32f1.a(usb_control.o)
 .debug_macro   0x0000000000000000       0x52 /home/maddocks/src/i2c-star-stm32f411ceu6-blackpill/libopencm3/lib/libopencm3_stm32f1.a(usb_control.o)
 .debug_macro   0x0000000000000000      0x182 /home/maddocks/src/i2c-star-stm32f411ceu6-blackpill/libopencm3/lib/libopencm3_stm32f1.a(usb_control.o)
 .debug_macro   0x0000000000000000      0x35c /home/maddocks/src/i2c-star-stm32f411ceu6-blackpill/libopencm3/lib/libopencm3_stm32f1.a(usb_control.o)
 .debug_macro   0x0000000000000000      0x34e /home/maddocks/src/i2c-star-stm32f411ceu6-blackpill/libopencm3/lib/libopencm3_stm32f1.a(usb_control.o)
 .debug_macro   0x0000000000000000       0x1c /home/maddocks/src/i2c-star-stm32f411ceu6-blackpill/libopencm3/lib/libopencm3_stm32f1.a(usb_control.o)
 .debug_macro   0x0000000000000000       0x22 /home/maddocks/src/i2c-star-stm32f411ceu6-blackpill/libopencm3/lib/libopencm3_stm32f1.a(usb_control.o)
 .debug_macro   0x0000000000000000       0xe8 /home/maddocks/src/i2c-star-stm32f411ceu6-blackpill/libopencm3/lib/libopencm3_stm32f1.a(usb_control.o)
 .debug_macro   0x0000000000000000      0x19c /home/maddocks/src/i2c-star-stm32f411ceu6-blackpill/libopencm3/lib/libopencm3_stm32f1.a(usb_control.o)
 .debug_macro   0x0000000000000000       0x10 /home/maddocks/src/i2c-star-stm32f411ceu6-blackpill/libopencm3/lib/libopencm3_stm32f1.a(usb_control.o)
 .debug_macro   0x0000000000000000       0x1c /home/maddocks/src/i2c-star-stm32f411ceu6-blackpill/libopencm3/lib/libopencm3_stm32f1.a(usb_control.o)
 .group         0x0000000000000000        0xc /home/maddocks/src/i2c-star-stm32f411ceu6-blackpill/libopencm3/lib/libopencm3_stm32f1.a(usb_standard.o)
 .group         0x0000000000000000        0xc /home/maddocks/src/i2c-star-stm32f411ceu6-blackpill/libopencm3/lib/libopencm3_stm32f1.a(usb_standard.o)
 .group         0x0000000000000000        0xc /home/maddocks/src/i2c-star-stm32f411ceu6-blackpill/libopencm3/lib/libopencm3_stm32f1.a(usb_standard.o)
 .group         0x0000000000000000        0xc /home/maddocks/src/i2c-star-stm32f411ceu6-blackpill/libopencm3/lib/libopencm3_stm32f1.a(usb_standard.o)
 .group         0x0000000000000000        0xc /home/maddocks/src/i2c-star-stm32f411ceu6-blackpill/libopencm3/lib/libopencm3_stm32f1.a(usb_standard.o)
 .group         0x0000000000000000        0xc /home/maddocks/src/i2c-star-stm32f411ceu6-blackpill/libopencm3/lib/libopencm3_stm32f1.a(usb_standard.o)
 .group         0x0000000000000000        0xc /home/maddocks/src/i2c-star-stm32f411ceu6-blackpill/libopencm3/lib/libopencm3_stm32f1.a(usb_standard.o)
 .group         0x0000000000000000        0xc /home/maddocks/src/i2c-star-stm32f411ceu6-blackpill/libopencm3/lib/libopencm3_stm32f1.a(usb_standard.o)
 .group         0x0000000000000000        0xc /home/maddocks/src/i2c-star-stm32f411ceu6-blackpill/libopencm3/lib/libopencm3_stm32f1.a(usb_standard.o)
 .group         0x0000000000000000        0xc /home/maddocks/src/i2c-star-stm32f411ceu6-blackpill/libopencm3/lib/libopencm3_stm32f1.a(usb_standard.o)
 .group         0x0000000000000000        0xc /home/maddocks/src/i2c-star-stm32f411ceu6-blackpill/libopencm3/lib/libopencm3_stm32f1.a(usb_standard.o)
 .group         0x0000000000000000        0xc /home/maddocks/src/i2c-star-stm32f411ceu6-blackpill/libopencm3/lib/libopencm3_stm32f1.a(usb_standard.o)
 .group         0x0000000000000000        0xc /home/maddocks/src/i2c-star-stm32f411ceu6-blackpill/libopencm3/lib/libopencm3_stm32f1.a(usb_standard.o)
 .group         0x0000000000000000        0xc /home/maddocks/src/i2c-star-stm32f411ceu6-blackpill/libopencm3/lib/libopencm3_stm32f1.a(usb_standard.o)
 .group         0x0000000000000000        0xc /home/maddocks/src/i2c-star-stm32f411ceu6-blackpill/libopencm3/lib/libopencm3_stm32f1.a(usb_standard.o)
 .group         0x0000000000000000        0xc /home/maddocks/src/i2c-star-stm32f411ceu6-blackpill/libopencm3/lib/libopencm3_stm32f1.a(usb_standard.o)
 .group         0x0000000000000000        0xc /home/maddocks/src/i2c-star-stm32f411ceu6-blackpill/libopencm3/lib/libopencm3_stm32f1.a(usb_standard.o)
 .group         0x0000000000000000        0xc /home/maddocks/src/i2c-star-stm32f411ceu6-blackpill/libopencm3/lib/libopencm3_stm32f1.a(usb_standard.o)
 .group         0x0000000000000000        0xc /home/maddocks/src/i2c-star-stm32f411ceu6-blackpill/libopencm3/lib/libopencm3_stm32f1.a(usb_standard.o)
 .group         0x0000000000000000        0xc /home/maddocks/src/i2c-star-stm32f411ceu6-blackpill/libopencm3/lib/libopencm3_stm32f1.a(usb_standard.o)
 .group         0x0000000000000000        0xc /home/maddocks/src/i2c-star-stm32f411ceu6-blackpill/libopencm3/lib/libopencm3_stm32f1.a(usb_standard.o)
 .group         0x0000000000000000        0xc /home/maddocks/src/i2c-star-stm32f411ceu6-blackpill/libopencm3/lib/libopencm3_stm32f1.a(usb_standard.o)
 .group         0x0000000000000000        0xc /home/maddocks/src/i2c-star-stm32f411ceu6-blackpill/libopencm3/lib/libopencm3_stm32f1.a(usb_standard.o)
 .group         0x0000000000000000        0xc /home/maddocks/src/i2c-star-stm32f411ceu6-blackpill/libopencm3/lib/libopencm3_stm32f1.a(usb_standard.o)
 .group         0x0000000000000000        0xc /home/maddocks/src/i2c-star-stm32f411ceu6-blackpill/libopencm3/lib/libopencm3_stm32f1.a(usb_standard.o)
 .text          0x0000000000000000        0x0 /home/maddocks/src/i2c-star-stm32f411ceu6-blackpill/libopencm3/lib/libopencm3_stm32f1.a(usb_standard.o)
 .data          0x0000000000000000        0x0 /home/maddocks/src/i2c-star-stm32f411ceu6-blackpill/libopencm3/lib/libopencm3_stm32f1.a(usb_standard.o)
 .bss           0x0000000000000000        0x0 /home/maddocks/src/i2c-star-stm32f411ceu6-blackpill/libopencm3/lib/libopencm3_stm32f1.a(usb_standard.o)
 .text.usbd_register_set_altsetting_callback
                0x0000000000000000        0x6 /home/maddocks/src/i2c-star-stm32f411ceu6-blackpill/libopencm3/lib/libopencm3_stm32f1.a(usb_standard.o)
 .debug_macro   0x0000000000000000      0xa90 /home/maddocks/src/i2c-star-stm32f411ceu6-blackpill/libopencm3/lib/libopencm3_stm32f1.a(usb_standard.o)
 .debug_macro   0x0000000000000000       0x22 /home/maddocks/src/i2c-star-stm32f411ceu6-blackpill/libopencm3/lib/libopencm3_stm32f1.a(usb_standard.o)
 .debug_macro   0x0000000000000000       0x52 /home/maddocks/src/i2c-star-stm32f411ceu6-blackpill/libopencm3/lib/libopencm3_stm32f1.a(usb_standard.o)
 .debug_macro   0x0000000000000000       0x18 /home/maddocks/src/i2c-star-stm32f411ceu6-blackpill/libopencm3/lib/libopencm3_stm32f1.a(usb_standard.o)
 .debug_macro   0x0000000000000000       0x5c /home/maddocks/src/i2c-star-stm32f411ceu6-blackpill/libopencm3/lib/libopencm3_stm32f1.a(usb_standard.o)
 .debug_macro   0x0000000000000000       0x35 /home/maddocks/src/i2c-star-stm32f411ceu6-blackpill/libopencm3/lib/libopencm3_stm32f1.a(usb_standard.o)
 .debug_macro   0x0000000000000000       0x34 /home/maddocks/src/i2c-star-stm32f411ceu6-blackpill/libopencm3/lib/libopencm3_stm32f1.a(usb_standard.o)
 .debug_macro   0x0000000000000000      0x16d /home/maddocks/src/i2c-star-stm32f411ceu6-blackpill/libopencm3/lib/libopencm3_stm32f1.a(usb_standard.o)
 .debug_macro   0x0000000000000000       0x16 /home/maddocks/src/i2c-star-stm32f411ceu6-blackpill/libopencm3/lib/libopencm3_stm32f1.a(usb_standard.o)
 .debug_macro   0x0000000000000000       0x43 /home/maddocks/src/i2c-star-stm32f411ceu6-blackpill/libopencm3/lib/libopencm3_stm32f1.a(usb_standard.o)
 .debug_macro   0x0000000000000000       0x57 /home/maddocks/src/i2c-star-stm32f411ceu6-blackpill/libopencm3/lib/libopencm3_stm32f1.a(usb_standard.o)
 .debug_macro   0x0000000000000000       0x34 /home/maddocks/src/i2c-star-stm32f411ceu6-blackpill/libopencm3/lib/libopencm3_stm32f1.a(usb_standard.o)
 .debug_macro   0x0000000000000000       0x10 /home/maddocks/src/i2c-star-stm32f411ceu6-blackpill/libopencm3/lib/libopencm3_stm32f1.a(usb_standard.o)
 .debug_macro   0x0000000000000000       0x52 /home/maddocks/src/i2c-star-stm32f411ceu6-blackpill/libopencm3/lib/libopencm3_stm32f1.a(usb_standard.o)
 .debug_macro   0x0000000000000000      0x182 /home/maddocks/src/i2c-star-stm32f411ceu6-blackpill/libopencm3/lib/libopencm3_stm32f1.a(usb_standard.o)
 .debug_macro   0x0000000000000000      0x35c /home/maddocks/src/i2c-star-stm32f411ceu6-blackpill/libopencm3/lib/libopencm3_stm32f1.a(usb_standard.o)
 .debug_macro   0x0000000000000000       0x10 /home/maddocks/src/i2c-star-stm32f411ceu6-blackpill/libopencm3/lib/libopencm3_stm32f1.a(usb_standard.o)
 .debug_macro   0x0000000000000000       0x35 /home/maddocks/src/i2c-star-stm32f411ceu6-blackpill/libopencm3/lib/libopencm3_stm32f1.a(usb_standard.o)
 .debug_macro   0x0000000000000000      0x34e /home/maddocks/src/i2c-star-stm32f411ceu6-blackpill/libopencm3/lib/libopencm3_stm32f1.a(usb_standard.o)
 .debug_macro   0x0000000000000000       0x1c /home/maddocks/src/i2c-star-stm32f411ceu6-blackpill/libopencm3/lib/libopencm3_stm32f1.a(usb_standard.o)
 .debug_macro   0x0000000000000000       0x22 /home/maddocks/src/i2c-star-stm32f411ceu6-blackpill/libopencm3/lib/libopencm3_stm32f1.a(usb_standard.o)
 .debug_macro   0x0000000000000000       0xe8 /home/maddocks/src/i2c-star-stm32f411ceu6-blackpill/libopencm3/lib/libopencm3_stm32f1.a(usb_standard.o)
 .debug_macro   0x0000000000000000      0x19c /home/maddocks/src/i2c-star-stm32f411ceu6-blackpill/libopencm3/lib/libopencm3_stm32f1.a(usb_standard.o)
 .debug_macro   0x0000000000000000       0x10 /home/maddocks/src/i2c-star-stm32f411ceu6-blackpill/libopencm3/lib/libopencm3_stm32f1.a(usb_standard.o)
 .debug_macro   0x0000000000000000       0x1c /home/maddocks/src/i2c-star-stm32f411ceu6-blackpill/libopencm3/lib/libopencm3_stm32f1.a(usb_standard.o)
 .group         0x0000000000000000        0xc /home/maddocks/src/i2c-star-stm32f411ceu6-blackpill/libopencm3/lib/libopencm3_stm32f1.a(st_usbfs_v1.o)
 .group         0x0000000000000000        0xc /home/maddocks/src/i2c-star-stm32f411ceu6-blackpill/libopencm3/lib/libopencm3_stm32f1.a(st_usbfs_v1.o)
 .group         0x0000000000000000        0xc /home/maddocks/src/i2c-star-stm32f411ceu6-blackpill/libopencm3/lib/libopencm3_stm32f1.a(st_usbfs_v1.o)
 .group         0x0000000000000000        0xc /home/maddocks/src/i2c-star-stm32f411ceu6-blackpill/libopencm3/lib/libopencm3_stm32f1.a(st_usbfs_v1.o)
 .group         0x0000000000000000        0xc /home/maddocks/src/i2c-star-stm32f411ceu6-blackpill/libopencm3/lib/libopencm3_stm32f1.a(st_usbfs_v1.o)
 .group         0x0000000000000000        0xc /home/maddocks/src/i2c-star-stm32f411ceu6-blackpill/libopencm3/lib/libopencm3_stm32f1.a(st_usbfs_v1.o)
 .group         0x0000000000000000        0xc /home/maddocks/src/i2c-star-stm32f411ceu6-blackpill/libopencm3/lib/libopencm3_stm32f1.a(st_usbfs_v1.o)
 .group         0x0000000000000000        0xc /home/maddocks/src/i2c-star-stm32f411ceu6-blackpill/libopencm3/lib/libopencm3_stm32f1.a(st_usbfs_v1.o)
 .group         0x0000000000000000        0xc /home/maddocks/src/i2c-star-stm32f411ceu6-blackpill/libopencm3/lib/libopencm3_stm32f1.a(st_usbfs_v1.o)
 .group         0x0000000000000000        0xc /home/maddocks/src/i2c-star-stm32f411ceu6-blackpill/libopencm3/lib/libopencm3_stm32f1.a(st_usbfs_v1.o)
 .group         0x0000000000000000        0xc /home/maddocks/src/i2c-star-stm32f411ceu6-blackpill/libopencm3/lib/libopencm3_stm32f1.a(st_usbfs_v1.o)
 .group         0x0000000000000000        0xc /home/maddocks/src/i2c-star-stm32f411ceu6-blackpill/libopencm3/lib/libopencm3_stm32f1.a(st_usbfs_v1.o)
 .group         0x0000000000000000        0xc /home/maddocks/src/i2c-star-stm32f411ceu6-blackpill/libopencm3/lib/libopencm3_stm32f1.a(st_usbfs_v1.o)
 .group         0x0000000000000000        0xc /home/maddocks/src/i2c-star-stm32f411ceu6-blackpill/libopencm3/lib/libopencm3_stm32f1.a(st_usbfs_v1.o)
 .group         0x0000000000000000        0xc /home/maddocks/src/i2c-star-stm32f411ceu6-blackpill/libopencm3/lib/libopencm3_stm32f1.a(st_usbfs_v1.o)
 .text          0x0000000000000000        0x0 /home/maddocks/src/i2c-star-stm32f411ceu6-blackpill/libopencm3/lib/libopencm3_stm32f1.a(st_usbfs_v1.o)
 .data          0x0000000000000000        0x0 /home/maddocks/src/i2c-star-stm32f411ceu6-blackpill/libopencm3/lib/libopencm3_stm32f1.a(st_usbfs_v1.o)
 .bss           0x0000000000000000        0x0 /home/maddocks/src/i2c-star-stm32f411ceu6-blackpill/libopencm3/lib/libopencm3_stm32f1.a(st_usbfs_v1.o)
 .debug_macro   0x0000000000000000      0xa90 /home/maddocks/src/i2c-star-stm32f411ceu6-blackpill/libopencm3/lib/libopencm3_stm32f1.a(st_usbfs_v1.o)
 .debug_macro   0x0000000000000000       0x1c /home/maddocks/src/i2c-star-stm32f411ceu6-blackpill/libopencm3/lib/libopencm3_stm32f1.a(st_usbfs_v1.o)
 .debug_macro   0x0000000000000000      0x34e /home/maddocks/src/i2c-star-stm32f411ceu6-blackpill/libopencm3/lib/libopencm3_stm32f1.a(st_usbfs_v1.o)
 .debug_macro   0x0000000000000000       0x22 /home/maddocks/src/i2c-star-stm32f411ceu6-blackpill/libopencm3/lib/libopencm3_stm32f1.a(st_usbfs_v1.o)
 .debug_macro   0x0000000000000000       0xe8 /home/maddocks/src/i2c-star-stm32f411ceu6-blackpill/libopencm3/lib/libopencm3_stm32f1.a(st_usbfs_v1.o)
 .debug_macro   0x0000000000000000       0x76 /home/maddocks/src/i2c-star-stm32f411ceu6-blackpill/libopencm3/lib/libopencm3_stm32f1.a(st_usbfs_v1.o)
 .debug_macro   0x0000000000000000      0x1b4 /home/maddocks/src/i2c-star-stm32f411ceu6-blackpill/libopencm3/lib/libopencm3_stm32f1.a(st_usbfs_v1.o)
 .debug_macro   0x0000000000000000      0x82c /home/maddocks/src/i2c-star-stm32f411ceu6-blackpill/libopencm3/lib/libopencm3_stm32f1.a(st_usbfs_v1.o)
 .debug_macro   0x0000000000000000       0x10 /home/maddocks/src/i2c-star-stm32f411ceu6-blackpill/libopencm3/lib/libopencm3_stm32f1.a(st_usbfs_v1.o)
 .debug_macro   0x0000000000000000       0x1c /home/maddocks/src/i2c-star-stm32f411ceu6-blackpill/libopencm3/lib/libopencm3_stm32f1.a(st_usbfs_v1.o)
 .group         0x0000000000000000        0xc /home/maddocks/src/i2c-star-stm32f411ceu6-blackpill/libopencm3/lib/libopencm3_stm32f1.a(vector.o)
 .group         0x0000000000000000        0xc /home/maddocks/src/i2c-star-stm32f411ceu6-blackpill/libopencm3/lib/libopencm3_stm32f1.a(vector.o)
 .group         0x0000000000000000        0xc /home/maddocks/src/i2c-star-stm32f411ceu6-blackpill/libopencm3/lib/libopencm3_stm32f1.a(vector.o)
 .group         0x0000000000000000        0xc /home/maddocks/src/i2c-star-stm32f411ceu6-blackpill/libopencm3/lib/libopencm3_stm32f1.a(vector.o)
 .group         0x0000000000000000        0xc /home/maddocks/src/i2c-star-stm32f411ceu6-blackpill/libopencm3/lib/libopencm3_stm32f1.a(vector.o)
 .group         0x0000000000000000        0xc /home/maddocks/src/i2c-star-stm32f411ceu6-blackpill/libopencm3/lib/libopencm3_stm32f1.a(vector.o)
 .group         0x0000000000000000        0xc /home/maddocks/src/i2c-star-stm32f411ceu6-blackpill/libopencm3/lib/libopencm3_stm32f1.a(vector.o)
 .group         0x0000000000000000        0xc /home/maddocks/src/i2c-star-stm32f411ceu6-blackpill/libopencm3/lib/libopencm3_stm32f1.a(vector.o)
 .group         0x0000000000000000        0xc /home/maddocks/src/i2c-star-stm32f411ceu6-blackpill/libopencm3/lib/libopencm3_stm32f1.a(vector.o)
 .text          0x0000000000000000        0x0 /home/maddocks/src/i2c-star-stm32f411ceu6-blackpill/libopencm3/lib/libopencm3_stm32f1.a(vector.o)
 .data          0x0000000000000000        0x0 /home/maddocks/src/i2c-star-stm32f411ceu6-blackpill/libopencm3/lib/libopencm3_stm32f1.a(vector.o)
 .bss           0x0000000000000000        0x0 /home/maddocks/src/i2c-star-stm32f411ceu6-blackpill/libopencm3/lib/libopencm3_stm32f1.a(vector.o)
 .debug_macro   0x0000000000000000      0xa90 /home/maddocks/src/i2c-star-stm32f411ceu6-blackpill/libopencm3/lib/libopencm3_stm32f1.a(vector.o)
 .debug_macro   0x0000000000000000       0x76 /home/maddocks/src/i2c-star-stm32f411ceu6-blackpill/libopencm3/lib/libopencm3_stm32f1.a(vector.o)
 .debug_macro   0x0000000000000000       0x1c /home/maddocks/src/i2c-star-stm32f411ceu6-blackpill/libopencm3/lib/libopencm3_stm32f1.a(vector.o)
 .debug_macro   0x0000000000000000      0x34e /home/maddocks/src/i2c-star-stm32f411ceu6-blackpill/libopencm3/lib/libopencm3_stm32f1.a(vector.o)
 .debug_macro   0x0000000000000000       0x22 /home/maddocks/src/i2c-star-stm32f411ceu6-blackpill/libopencm3/lib/libopencm3_stm32f1.a(vector.o)
 .debug_macro   0x0000000000000000       0xe8 /home/maddocks/src/i2c-star-stm32f411ceu6-blackpill/libopencm3/lib/libopencm3_stm32f1.a(vector.o)
 .group         0x0000000000000000        0xc /home/maddocks/src/i2c-star-stm32f411ceu6-blackpill/libopencm3/lib/libopencm3_stm32f1.a(systick.o)
 .group         0x0000000000000000        0xc /home/maddocks/src/i2c-star-stm32f411ceu6-blackpill/libopencm3/lib/libopencm3_stm32f1.a(systick.o)
 .group         0x0000000000000000        0xc /home/maddocks/src/i2c-star-stm32f411ceu6-blackpill/libopencm3/lib/libopencm3_stm32f1.a(systick.o)
 .group         0x0000000000000000        0xc /home/maddocks/src/i2c-star-stm32f411ceu6-blackpill/libopencm3/lib/libopencm3_stm32f1.a(systick.o)
 .group         0x0000000000000000        0xc /home/maddocks/src/i2c-star-stm32f411ceu6-blackpill/libopencm3/lib/libopencm3_stm32f1.a(systick.o)
 .group         0x0000000000000000        0xc /home/maddocks/src/i2c-star-stm32f411ceu6-blackpill/libopencm3/lib/libopencm3_stm32f1.a(systick.o)
 .group         0x0000000000000000        0xc /home/maddocks/src/i2c-star-stm32f411ceu6-blackpill/libopencm3/lib/libopencm3_stm32f1.a(systick.o)
 .text          0x0000000000000000        0x0 /home/maddocks/src/i2c-star-stm32f411ceu6-blackpill/libopencm3/lib/libopencm3_stm32f1.a(systick.o)
 .data          0x0000000000000000        0x0 /home/maddocks/src/i2c-star-stm32f411ceu6-blackpill/libopencm3/lib/libopencm3_stm32f1.a(systick.o)
 .bss           0x0000000000000000        0x0 /home/maddocks/src/i2c-star-stm32f411ceu6-blackpill/libopencm3/lib/libopencm3_stm32f1.a(systick.o)
 .text.systick_get_reload
                0x0000000000000000       0x10 /home/maddocks/src/i2c-star-stm32f411ceu6-blackpill/libopencm3/lib/libopencm3_stm32f1.a(systick.o)
 .text.systick_get_value
                0x0000000000000000       0x10 /home/maddocks/src/i2c-star-stm32f411ceu6-blackpill/libopencm3/lib/libopencm3_stm32f1.a(systick.o)
 .text.systick_set_frequency
                0x0000000000000000       0x38 /home/maddocks/src/i2c-star-stm32f411ceu6-blackpill/libopencm3/lib/libopencm3_stm32f1.a(systick.o)
 .text.systick_interrupt_disable
                0x0000000000000000       0x10 /home/maddocks/src/i2c-star-stm32f411ceu6-blackpill/libopencm3/lib/libopencm3_stm32f1.a(systick.o)
 .text.systick_counter_disable
                0x0000000000000000       0x10 /home/maddocks/src/i2c-star-stm32f411ceu6-blackpill/libopencm3/lib/libopencm3_stm32f1.a(systick.o)
 .text.systick_get_countflag
                0x0000000000000000       0x10 /home/maddocks/src/i2c-star-stm32f411ceu6-blackpill/libopencm3/lib/libopencm3_stm32f1.a(systick.o)
 .text.systick_clear
                0x0000000000000000        0xc /home/maddocks/src/i2c-star-stm32f411ceu6-blackpill/libopencm3/lib/libopencm3_stm32f1.a(systick.o)
 .text.systick_get_calib
                0x0000000000000000       0x10 /home/maddocks/src/i2c-star-stm32f411ceu6-blackpill/libopencm3/lib/libopencm3_stm32f1.a(systick.o)
 .debug_macro   0x0000000000000000      0xa90 /home/maddocks/src/i2c-star-stm32f411ceu6-blackpill/libopencm3/lib/libopencm3_stm32f1.a(systick.o)
 .debug_macro   0x0000000000000000       0x76 /home/maddocks/src/i2c-star-stm32f411ceu6-blackpill/libopencm3/lib/libopencm3_stm32f1.a(systick.o)
 .debug_macro   0x0000000000000000       0x1c /home/maddocks/src/i2c-star-stm32f411ceu6-blackpill/libopencm3/lib/libopencm3_stm32f1.a(systick.o)
 .debug_macro   0x0000000000000000      0x34e /home/maddocks/src/i2c-star-stm32f411ceu6-blackpill/libopencm3/lib/libopencm3_stm32f1.a(systick.o)
 .debug_macro   0x0000000000000000       0x22 /home/maddocks/src/i2c-star-stm32f411ceu6-blackpill/libopencm3/lib/libopencm3_stm32f1.a(systick.o)
 .debug_macro   0x0000000000000000       0xe8 /home/maddocks/src/i2c-star-stm32f411ceu6-blackpill/libopencm3/lib/libopencm3_stm32f1.a(systick.o)
 .group         0x0000000000000000        0xc /home/maddocks/src/i2c-star-stm32f411ceu6-blackpill/libopencm3/lib/libopencm3_stm32f1.a(scb.o)
 .group         0x0000000000000000        0xc /home/maddocks/src/i2c-star-stm32f411ceu6-blackpill/libopencm3/lib/libopencm3_stm32f1.a(scb.o)
 .group         0x0000000000000000        0xc /home/maddocks/src/i2c-star-stm32f411ceu6-blackpill/libopencm3/lib/libopencm3_stm32f1.a(scb.o)
 .group         0x0000000000000000        0xc /home/maddocks/src/i2c-star-stm32f411ceu6-blackpill/libopencm3/lib/libopencm3_stm32f1.a(scb.o)
 .group         0x0000000000000000        0xc /home/maddocks/src/i2c-star-stm32f411ceu6-blackpill/libopencm3/lib/libopencm3_stm32f1.a(scb.o)
 .group         0x0000000000000000        0xc /home/maddocks/src/i2c-star-stm32f411ceu6-blackpill/libopencm3/lib/libopencm3_stm32f1.a(scb.o)
 .group         0x0000000000000000        0xc /home/maddocks/src/i2c-star-stm32f411ceu6-blackpill/libopencm3/lib/libopencm3_stm32f1.a(scb.o)
 .group         0x0000000000000000        0xc /home/maddocks/src/i2c-star-stm32f411ceu6-blackpill/libopencm3/lib/libopencm3_stm32f1.a(scb.o)
 .group         0x0000000000000000        0xc /home/maddocks/src/i2c-star-stm32f411ceu6-blackpill/libopencm3/lib/libopencm3_stm32f1.a(scb.o)
 .group         0x0000000000000000        0xc /home/maddocks/src/i2c-star-stm32f411ceu6-blackpill/libopencm3/lib/libopencm3_stm32f1.a(scb.o)
 .group         0x0000000000000000        0xc /home/maddocks/src/i2c-star-stm32f411ceu6-blackpill/libopencm3/lib/libopencm3_stm32f1.a(scb.o)
 .group         0x0000000000000000        0xc /home/maddocks/src/i2c-star-stm32f411ceu6-blackpill/libopencm3/lib/libopencm3_stm32f1.a(scb.o)
 .group         0x0000000000000000        0xc /home/maddocks/src/i2c-star-stm32f411ceu6-blackpill/libopencm3/lib/libopencm3_stm32f1.a(scb.o)
 .group         0x0000000000000000        0xc /home/maddocks/src/i2c-star-stm32f411ceu6-blackpill/libopencm3/lib/libopencm3_stm32f1.a(scb.o)
 .group         0x0000000000000000        0xc /home/maddocks/src/i2c-star-stm32f411ceu6-blackpill/libopencm3/lib/libopencm3_stm32f1.a(scb.o)
 .group         0x0000000000000000        0xc /home/maddocks/src/i2c-star-stm32f411ceu6-blackpill/libopencm3/lib/libopencm3_stm32f1.a(scb.o)
 .group         0x0000000000000000        0xc /home/maddocks/src/i2c-star-stm32f411ceu6-blackpill/libopencm3/lib/libopencm3_stm32f1.a(scb.o)
 .group         0x0000000000000000        0xc /home/maddocks/src/i2c-star-stm32f411ceu6-blackpill/libopencm3/lib/libopencm3_stm32f1.a(scb.o)
 .group         0x0000000000000000        0xc /home/maddocks/src/i2c-star-stm32f411ceu6-blackpill/libopencm3/lib/libopencm3_stm32f1.a(scb.o)
 .group         0x0000000000000000        0xc /home/maddocks/src/i2c-star-stm32f411ceu6-blackpill/libopencm3/lib/libopencm3_stm32f1.a(scb.o)
 .group         0x0000000000000000        0xc /home/maddocks/src/i2c-star-stm32f411ceu6-blackpill/libopencm3/lib/libopencm3_stm32f1.a(scb.o)
 .group         0x0000000000000000        0xc /home/maddocks/src/i2c-star-stm32f411ceu6-blackpill/libopencm3/lib/libopencm3_stm32f1.a(scb.o)
 .group         0x0000000000000000        0xc /home/maddocks/src/i2c-star-stm32f411ceu6-blackpill/libopencm3/lib/libopencm3_stm32f1.a(scb.o)
 .group         0x0000000000000000        0xc /home/maddocks/src/i2c-star-stm32f411ceu6-blackpill/libopencm3/lib/libopencm3_stm32f1.a(scb.o)
 .group         0x0000000000000000        0xc /home/maddocks/src/i2c-star-stm32f411ceu6-blackpill/libopencm3/lib/libopencm3_stm32f1.a(scb.o)
 .text          0x0000000000000000        0x0 /home/maddocks/src/i2c-star-stm32f411ceu6-blackpill/libopencm3/lib/libopencm3_stm32f1.a(scb.o)
 .data          0x0000000000000000        0x0 /home/maddocks/src/i2c-star-stm32f411ceu6-blackpill/libopencm3/lib/libopencm3_stm32f1.a(scb.o)
 .bss           0x0000000000000000        0x0 /home/maddocks/src/i2c-star-stm32f411ceu6-blackpill/libopencm3/lib/libopencm3_stm32f1.a(scb.o)
 .text.scb_reset_core
                0x0000000000000000       0x10 /home/maddocks/src/i2c-star-stm32f411ceu6-blackpill/libopencm3/lib/libopencm3_stm32f1.a(scb.o)
 .text.scb_set_priority_grouping
                0x0000000000000000       0x14 /home/maddocks/src/i2c-star-stm32f411ceu6-blackpill/libopencm3/lib/libopencm3_stm32f1.a(scb.o)
 .debug_macro   0x0000000000000000      0xa90 /home/maddocks/src/i2c-star-stm32f411ceu6-blackpill/libopencm3/lib/libopencm3_stm32f1.a(scb.o)
 .debug_macro   0x0000000000000000       0x18 /home/maddocks/src/i2c-star-stm32f411ceu6-blackpill/libopencm3/lib/libopencm3_stm32f1.a(scb.o)
 .debug_macro   0x0000000000000000       0x22 /home/maddocks/src/i2c-star-stm32f411ceu6-blackpill/libopencm3/lib/libopencm3_stm32f1.a(scb.o)
 .debug_macro   0x0000000000000000       0x52 /home/maddocks/src/i2c-star-stm32f411ceu6-blackpill/libopencm3/lib/libopencm3_stm32f1.a(scb.o)
 .debug_macro   0x0000000000000000       0x5c /home/maddocks/src/i2c-star-stm32f411ceu6-blackpill/libopencm3/lib/libopencm3_stm32f1.a(scb.o)
 .debug_macro   0x0000000000000000       0x35 /home/maddocks/src/i2c-star-stm32f411ceu6-blackpill/libopencm3/lib/libopencm3_stm32f1.a(scb.o)
 .debug_macro   0x0000000000000000       0x34 /home/maddocks/src/i2c-star-stm32f411ceu6-blackpill/libopencm3/lib/libopencm3_stm32f1.a(scb.o)
 .debug_macro   0x0000000000000000       0x16 /home/maddocks/src/i2c-star-stm32f411ceu6-blackpill/libopencm3/lib/libopencm3_stm32f1.a(scb.o)
 .debug_macro   0x0000000000000000      0x10e /home/maddocks/src/i2c-star-stm32f411ceu6-blackpill/libopencm3/lib/libopencm3_stm32f1.a(scb.o)
 .debug_macro   0x0000000000000000       0x86 /home/maddocks/src/i2c-star-stm32f411ceu6-blackpill/libopencm3/lib/libopencm3_stm32f1.a(scb.o)
 .debug_macro   0x0000000000000000       0x16 /home/maddocks/src/i2c-star-stm32f411ceu6-blackpill/libopencm3/lib/libopencm3_stm32f1.a(scb.o)
 .debug_macro   0x0000000000000000       0x43 /home/maddocks/src/i2c-star-stm32f411ceu6-blackpill/libopencm3/lib/libopencm3_stm32f1.a(scb.o)
 .debug_macro   0x0000000000000000       0x57 /home/maddocks/src/i2c-star-stm32f411ceu6-blackpill/libopencm3/lib/libopencm3_stm32f1.a(scb.o)
 .debug_macro   0x0000000000000000       0x34 /home/maddocks/src/i2c-star-stm32f411ceu6-blackpill/libopencm3/lib/libopencm3_stm32f1.a(scb.o)
 .debug_macro   0x0000000000000000       0x10 /home/maddocks/src/i2c-star-stm32f411ceu6-blackpill/libopencm3/lib/libopencm3_stm32f1.a(scb.o)
 .debug_macro   0x0000000000000000       0x52 /home/maddocks/src/i2c-star-stm32f411ceu6-blackpill/libopencm3/lib/libopencm3_stm32f1.a(scb.o)
 .debug_macro   0x0000000000000000      0x182 /home/maddocks/src/i2c-star-stm32f411ceu6-blackpill/libopencm3/lib/libopencm3_stm32f1.a(scb.o)
 .debug_macro   0x0000000000000000      0x35c /home/maddocks/src/i2c-star-stm32f411ceu6-blackpill/libopencm3/lib/libopencm3_stm32f1.a(scb.o)
 .debug_macro   0x0000000000000000       0x22 /home/maddocks/src/i2c-star-stm32f411ceu6-blackpill/libopencm3/lib/libopencm3_stm32f1.a(scb.o)
 .debug_macro   0x0000000000000000       0x76 /home/maddocks/src/i2c-star-stm32f411ceu6-blackpill/libopencm3/lib/libopencm3_stm32f1.a(scb.o)
 .debug_macro   0x0000000000000000       0x1c /home/maddocks/src/i2c-star-stm32f411ceu6-blackpill/libopencm3/lib/libopencm3_stm32f1.a(scb.o)
 .debug_macro   0x0000000000000000      0x34e /home/maddocks/src/i2c-star-stm32f411ceu6-blackpill/libopencm3/lib/libopencm3_stm32f1.a(scb.o)
 .debug_macro   0x0000000000000000       0x22 /home/maddocks/src/i2c-star-stm32f411ceu6-blackpill/libopencm3/lib/libopencm3_stm32f1.a(scb.o)
 .debug_macro   0x0000000000000000       0xe8 /home/maddocks/src/i2c-star-stm32f411ceu6-blackpill/libopencm3/lib/libopencm3_stm32f1.a(scb.o)
 .debug_macro   0x0000000000000000      0x395 /home/maddocks/src/i2c-star-stm32f411ceu6-blackpill/libopencm3/lib/libopencm3_stm32f1.a(scb.o)
 .group         0x0000000000000000        0xc /home/maddocks/src/i2c-star-stm32f411ceu6-blackpill/libopencm3/lib/libopencm3_stm32f1.a(nvic.o)
 .group         0x0000000000000000        0xc /home/maddocks/src/i2c-star-stm32f411ceu6-blackpill/libopencm3/lib/libopencm3_stm32f1.a(nvic.o)
 .group         0x0000000000000000        0xc /home/maddocks/src/i2c-star-stm32f411ceu6-blackpill/libopencm3/lib/libopencm3_stm32f1.a(nvic.o)
 .group         0x0000000000000000        0xc /home/maddocks/src/i2c-star-stm32f411ceu6-blackpill/libopencm3/lib/libopencm3_stm32f1.a(nvic.o)
 .group         0x0000000000000000        0xc /home/maddocks/src/i2c-star-stm32f411ceu6-blackpill/libopencm3/lib/libopencm3_stm32f1.a(nvic.o)
 .group         0x0000000000000000        0xc /home/maddocks/src/i2c-star-stm32f411ceu6-blackpill/libopencm3/lib/libopencm3_stm32f1.a(nvic.o)
 .group         0x0000000000000000        0xc /home/maddocks/src/i2c-star-stm32f411ceu6-blackpill/libopencm3/lib/libopencm3_stm32f1.a(nvic.o)
 .group         0x0000000000000000        0xc /home/maddocks/src/i2c-star-stm32f411ceu6-blackpill/libopencm3/lib/libopencm3_stm32f1.a(nvic.o)
 .group         0x0000000000000000        0xc /home/maddocks/src/i2c-star-stm32f411ceu6-blackpill/libopencm3/lib/libopencm3_stm32f1.a(nvic.o)
 .text          0x0000000000000000        0x0 /home/maddocks/src/i2c-star-stm32f411ceu6-blackpill/libopencm3/lib/libopencm3_stm32f1.a(nvic.o)
 .data          0x0000000000000000        0x0 /home/maddocks/src/i2c-star-stm32f411ceu6-blackpill/libopencm3/lib/libopencm3_stm32f1.a(nvic.o)
 .bss           0x0000000000000000        0x0 /home/maddocks/src/i2c-star-stm32f411ceu6-blackpill/libopencm3/lib/libopencm3_stm32f1.a(nvic.o)
 .text.nvic_disable_irq
                0x0000000000000000       0x18 /home/maddocks/src/i2c-star-stm32f411ceu6-blackpill/libopencm3/lib/libopencm3_stm32f1.a(nvic.o)
 .text.nvic_get_pending_irq
                0x0000000000000000       0x22 /home/maddocks/src/i2c-star-stm32f411ceu6-blackpill/libopencm3/lib/libopencm3_stm32f1.a(nvic.o)
 .text.nvic_set_pending_irq
                0x0000000000000000       0x1a /home/maddocks/src/i2c-star-stm32f411ceu6-blackpill/libopencm3/lib/libopencm3_stm32f1.a(nvic.o)
 .text.nvic_clear_pending_irq
                0x0000000000000000       0x18 /home/maddocks/src/i2c-star-stm32f411ceu6-blackpill/libopencm3/lib/libopencm3_stm32f1.a(nvic.o)
 .text.nvic_get_irq_enabled
                0x0000000000000000       0x22 /home/maddocks/src/i2c-star-stm32f411ceu6-blackpill/libopencm3/lib/libopencm3_stm32f1.a(nvic.o)
 .text.nvic_set_priority
                0x0000000000000000       0x20 /home/maddocks/src/i2c-star-stm32f411ceu6-blackpill/libopencm3/lib/libopencm3_stm32f1.a(nvic.o)
 .text.nvic_get_active_irq
                0x0000000000000000       0x22 /home/maddocks/src/i2c-star-stm32f411ceu6-blackpill/libopencm3/lib/libopencm3_stm32f1.a(nvic.o)
 .text.nvic_generate_software_interrupt
                0x0000000000000000       0x14 /home/maddocks/src/i2c-star-stm32f411ceu6-blackpill/libopencm3/lib/libopencm3_stm32f1.a(nvic.o)
 .debug_macro   0x0000000000000000      0xa90 /home/maddocks/src/i2c-star-stm32f411ceu6-blackpill/libopencm3/lib/libopencm3_stm32f1.a(nvic.o)
 .debug_macro   0x0000000000000000       0x1c /home/maddocks/src/i2c-star-stm32f411ceu6-blackpill/libopencm3/lib/libopencm3_stm32f1.a(nvic.o)
 .debug_macro   0x0000000000000000      0x34e /home/maddocks/src/i2c-star-stm32f411ceu6-blackpill/libopencm3/lib/libopencm3_stm32f1.a(nvic.o)
 .debug_macro   0x0000000000000000       0x22 /home/maddocks/src/i2c-star-stm32f411ceu6-blackpill/libopencm3/lib/libopencm3_stm32f1.a(nvic.o)
 .debug_macro   0x0000000000000000       0xe8 /home/maddocks/src/i2c-star-stm32f411ceu6-blackpill/libopencm3/lib/libopencm3_stm32f1.a(nvic.o)
 .debug_macro   0x0000000000000000       0x76 /home/maddocks/src/i2c-star-stm32f411ceu6-blackpill/libopencm3/lib/libopencm3_stm32f1.a(nvic.o)
 .debug_macro   0x0000000000000000      0x1a2 /home/maddocks/src/i2c-star-stm32f411ceu6-blackpill/libopencm3/lib/libopencm3_stm32f1.a(nvic.o)
 .group         0x0000000000000000        0xc /home/maddocks/src/i2c-star-stm32f411ceu6-blackpill/libopencm3/lib/libopencm3_stm32f1.a(assert.o)
 .group         0x0000000000000000        0xc /home/maddocks/src/i2c-star-stm32f411ceu6-blackpill/libopencm3/lib/libopencm3_stm32f1.a(assert.o)
 .group         0x0000000000000000        0xc /home/maddocks/src/i2c-star-stm32f411ceu6-blackpill/libopencm3/lib/libopencm3_stm32f1.a(assert.o)
 .group         0x0000000000000000        0xc /home/maddocks/src/i2c-star-stm32f411ceu6-blackpill/libopencm3/lib/libopencm3_stm32f1.a(assert.o)
 .group         0x0000000000000000        0xc /home/maddocks/src/i2c-star-stm32f411ceu6-blackpill/libopencm3/lib/libopencm3_stm32f1.a(assert.o)
 .group         0x0000000000000000        0xc /home/maddocks/src/i2c-star-stm32f411ceu6-blackpill/libopencm3/lib/libopencm3_stm32f1.a(assert.o)
 .text          0x0000000000000000        0x0 /home/maddocks/src/i2c-star-stm32f411ceu6-blackpill/libopencm3/lib/libopencm3_stm32f1.a(assert.o)
 .data          0x0000000000000000        0x0 /home/maddocks/src/i2c-star-stm32f411ceu6-blackpill/libopencm3/lib/libopencm3_stm32f1.a(assert.o)
 .bss           0x0000000000000000        0x0 /home/maddocks/src/i2c-star-stm32f411ceu6-blackpill/libopencm3/lib/libopencm3_stm32f1.a(assert.o)
 .text.cm3_assert_failed
                0x0000000000000000        0x2 /home/maddocks/src/i2c-star-stm32f411ceu6-blackpill/libopencm3/lib/libopencm3_stm32f1.a(assert.o)
 .text.cm3_assert_failed_verbose
                0x0000000000000000        0x6 /home/maddocks/src/i2c-star-stm32f411ceu6-blackpill/libopencm3/lib/libopencm3_stm32f1.a(assert.o)
 .debug_info    0x0000000000000000      0x104 /home/maddocks/src/i2c-star-stm32f411ceu6-blackpill/libopencm3/lib/libopencm3_stm32f1.a(assert.o)
 .debug_abbrev  0x0000000000000000       0x98 /home/maddocks/src/i2c-star-stm32f411ceu6-blackpill/libopencm3/lib/libopencm3_stm32f1.a(assert.o)
 .debug_loc     0x0000000000000000       0x94 /home/maddocks/src/i2c-star-stm32f411ceu6-blackpill/libopencm3/lib/libopencm3_stm32f1.a(assert.o)
 .debug_aranges
                0x0000000000000000       0x28 /home/maddocks/src/i2c-star-stm32f411ceu6-blackpill/libopencm3/lib/libopencm3_stm32f1.a(assert.o)
 .debug_ranges  0x0000000000000000       0x18 /home/maddocks/src/i2c-star-stm32f411ceu6-blackpill/libopencm3/lib/libopencm3_stm32f1.a(assert.o)
 .debug_macro   0x0000000000000000       0x40 /home/maddocks/src/i2c-star-stm32f411ceu6-blackpill/libopencm3/lib/libopencm3_stm32f1.a(assert.o)
 .debug_macro   0x0000000000000000      0xa90 /home/maddocks/src/i2c-star-stm32f411ceu6-blackpill/libopencm3/lib/libopencm3_stm32f1.a(assert.o)
 .debug_macro   0x0000000000000000       0x1c /home/maddocks/src/i2c-star-stm32f411ceu6-blackpill/libopencm3/lib/libopencm3_stm32f1.a(assert.o)
 .debug_macro   0x0000000000000000      0x34e /home/maddocks/src/i2c-star-stm32f411ceu6-blackpill/libopencm3/lib/libopencm3_stm32f1.a(assert.o)
 .debug_macro   0x0000000000000000       0x22 /home/maddocks/src/i2c-star-stm32f411ceu6-blackpill/libopencm3/lib/libopencm3_stm32f1.a(assert.o)
 .debug_macro   0x0000000000000000       0xe8 /home/maddocks/src/i2c-star-stm32f411ceu6-blackpill/libopencm3/lib/libopencm3_stm32f1.a(assert.o)
 .debug_macro   0x0000000000000000       0x16 /home/maddocks/src/i2c-star-stm32f411ceu6-blackpill/libopencm3/lib/libopencm3_stm32f1.a(assert.o)
 .debug_line    0x0000000000000000       0xed /home/maddocks/src/i2c-star-stm32f411ceu6-blackpill/libopencm3/lib/libopencm3_stm32f1.a(assert.o)
 .debug_str     0x0000000000000000     0x3d2f /home/maddocks/src/i2c-star-stm32f411ceu6-blackpill/libopencm3/lib/libopencm3_stm32f1.a(assert.o)
 .comment       0x0000000000000000       0x5a /home/maddocks/src/i2c-star-stm32f411ceu6-blackpill/libopencm3/lib/libopencm3_stm32f1.a(assert.o)
 .debug_frame   0x0000000000000000       0x38 /home/maddocks/src/i2c-star-stm32f411ceu6-blackpill/libopencm3/lib/libopencm3_stm32f1.a(assert.o)
 .ARM.attributes
                0x0000000000000000       0x2d /home/maddocks/src/i2c-star-stm32f411ceu6-blackpill/libopencm3/lib/libopencm3_stm32f1.a(assert.o)
 .group         0x0000000000000000        0xc /home/maddocks/src/i2c-star-stm32f411ceu6-blackpill/libopencm3/lib/libopencm3_stm32f1.a(flash_common_all.o)
 .group         0x0000000000000000        0xc /home/maddocks/src/i2c-star-stm32f411ceu6-blackpill/libopencm3/lib/libopencm3_stm32f1.a(flash_common_all.o)
 .group         0x0000000000000000        0xc /home/maddocks/src/i2c-star-stm32f411ceu6-blackpill/libopencm3/lib/libopencm3_stm32f1.a(flash_common_all.o)
 .group         0x0000000000000000        0xc /home/maddocks/src/i2c-star-stm32f411ceu6-blackpill/libopencm3/lib/libopencm3_stm32f1.a(flash_common_all.o)
 .group         0x0000000000000000        0xc /home/maddocks/src/i2c-star-stm32f411ceu6-blackpill/libopencm3/lib/libopencm3_stm32f1.a(flash_common_all.o)
 .group         0x0000000000000000        0xc /home/maddocks/src/i2c-star-stm32f411ceu6-blackpill/libopencm3/lib/libopencm3_stm32f1.a(flash_common_all.o)
 .group         0x0000000000000000        0xc /home/maddocks/src/i2c-star-stm32f411ceu6-blackpill/libopencm3/lib/libopencm3_stm32f1.a(flash_common_all.o)
 .group         0x0000000000000000        0xc /home/maddocks/src/i2c-star-stm32f411ceu6-blackpill/libopencm3/lib/libopencm3_stm32f1.a(flash_common_all.o)
 .group         0x0000000000000000        0xc /home/maddocks/src/i2c-star-stm32f411ceu6-blackpill/libopencm3/lib/libopencm3_stm32f1.a(flash_common_all.o)
 .text          0x0000000000000000        0x0 /home/maddocks/src/i2c-star-stm32f411ceu6-blackpill/libopencm3/lib/libopencm3_stm32f1.a(flash_common_all.o)
 .data          0x0000000000000000        0x0 /home/maddocks/src/i2c-star-stm32f411ceu6-blackpill/libopencm3/lib/libopencm3_stm32f1.a(flash_common_all.o)
 .bss           0x0000000000000000        0x0 /home/maddocks/src/i2c-star-stm32f411ceu6-blackpill/libopencm3/lib/libopencm3_stm32f1.a(flash_common_all.o)
 .text.flash_prefetch_enable
                0x0000000000000000       0x10 /home/maddocks/src/i2c-star-stm32f411ceu6-blackpill/libopencm3/lib/libopencm3_stm32f1.a(flash_common_all.o)
 .text.flash_prefetch_disable
                0x0000000000000000       0x10 /home/maddocks/src/i2c-star-stm32f411ceu6-blackpill/libopencm3/lib/libopencm3_stm32f1.a(flash_common_all.o)
 .text.flash_unlock_option_bytes
                0x0000000000000000       0x18 /home/maddocks/src/i2c-star-stm32f411ceu6-blackpill/libopencm3/lib/libopencm3_stm32f1.a(flash_common_all.o)
 .debug_macro   0x0000000000000000      0xa90 /home/maddocks/src/i2c-star-stm32f411ceu6-blackpill/libopencm3/lib/libopencm3_stm32f1.a(flash_common_all.o)
 .debug_macro   0x0000000000000000       0x1c /home/maddocks/src/i2c-star-stm32f411ceu6-blackpill/libopencm3/lib/libopencm3_stm32f1.a(flash_common_all.o)
 .debug_macro   0x0000000000000000      0x34e /home/maddocks/src/i2c-star-stm32f411ceu6-blackpill/libopencm3/lib/libopencm3_stm32f1.a(flash_common_all.o)
 .debug_macro   0x0000000000000000       0x22 /home/maddocks/src/i2c-star-stm32f411ceu6-blackpill/libopencm3/lib/libopencm3_stm32f1.a(flash_common_all.o)
 .debug_macro   0x0000000000000000       0xe8 /home/maddocks/src/i2c-star-stm32f411ceu6-blackpill/libopencm3/lib/libopencm3_stm32f1.a(flash_common_all.o)
 .debug_macro   0x0000000000000000       0x76 /home/maddocks/src/i2c-star-stm32f411ceu6-blackpill/libopencm3/lib/libopencm3_stm32f1.a(flash_common_all.o)
 .debug_macro   0x0000000000000000      0x1b4 /home/maddocks/src/i2c-star-stm32f411ceu6-blackpill/libopencm3/lib/libopencm3_stm32f1.a(flash_common_all.o)
 .debug_macro   0x0000000000000000       0xee /home/maddocks/src/i2c-star-stm32f411ceu6-blackpill/libopencm3/lib/libopencm3_stm32f1.a(flash_common_all.o)
 .debug_macro   0x0000000000000000       0x82 /home/maddocks/src/i2c-star-stm32f411ceu6-blackpill/libopencm3/lib/libopencm3_stm32f1.a(flash_common_all.o)
 .group         0x0000000000000000        0xc /home/maddocks/src/i2c-star-stm32f411ceu6-blackpill/libopencm3/lib/libopencm3_stm32f1.a(st_usbfs_core.o)
 .group         0x0000000000000000        0xc /home/maddocks/src/i2c-star-stm32f411ceu6-blackpill/libopencm3/lib/libopencm3_stm32f1.a(st_usbfs_core.o)
 .group         0x0000000000000000        0xc /home/maddocks/src/i2c-star-stm32f411ceu6-blackpill/libopencm3/lib/libopencm3_stm32f1.a(st_usbfs_core.o)
 .group         0x0000000000000000        0xc /home/maddocks/src/i2c-star-stm32f411ceu6-blackpill/libopencm3/lib/libopencm3_stm32f1.a(st_usbfs_core.o)
 .group         0x0000000000000000        0xc /home/maddocks/src/i2c-star-stm32f411ceu6-blackpill/libopencm3/lib/libopencm3_stm32f1.a(st_usbfs_core.o)
 .group         0x0000000000000000        0xc /home/maddocks/src/i2c-star-stm32f411ceu6-blackpill/libopencm3/lib/libopencm3_stm32f1.a(st_usbfs_core.o)
 .group         0x0000000000000000        0xc /home/maddocks/src/i2c-star-stm32f411ceu6-blackpill/libopencm3/lib/libopencm3_stm32f1.a(st_usbfs_core.o)
 .group         0x0000000000000000        0xc /home/maddocks/src/i2c-star-stm32f411ceu6-blackpill/libopencm3/lib/libopencm3_stm32f1.a(st_usbfs_core.o)
 .group         0x0000000000000000        0xc /home/maddocks/src/i2c-star-stm32f411ceu6-blackpill/libopencm3/lib/libopencm3_stm32f1.a(st_usbfs_core.o)
 .group         0x0000000000000000        0xc /home/maddocks/src/i2c-star-stm32f411ceu6-blackpill/libopencm3/lib/libopencm3_stm32f1.a(st_usbfs_core.o)
 .group         0x0000000000000000        0xc /home/maddocks/src/i2c-star-stm32f411ceu6-blackpill/libopencm3/lib/libopencm3_stm32f1.a(st_usbfs_core.o)
 .group         0x0000000000000000        0xc /home/maddocks/src/i2c-star-stm32f411ceu6-blackpill/libopencm3/lib/libopencm3_stm32f1.a(st_usbfs_core.o)
 .group         0x0000000000000000        0xc /home/maddocks/src/i2c-star-stm32f411ceu6-blackpill/libopencm3/lib/libopencm3_stm32f1.a(st_usbfs_core.o)
 .group         0x0000000000000000        0xc /home/maddocks/src/i2c-star-stm32f411ceu6-blackpill/libopencm3/lib/libopencm3_stm32f1.a(st_usbfs_core.o)
 .group         0x0000000000000000        0xc /home/maddocks/src/i2c-star-stm32f411ceu6-blackpill/libopencm3/lib/libopencm3_stm32f1.a(st_usbfs_core.o)
 .text          0x0000000000000000        0x0 /home/maddocks/src/i2c-star-stm32f411ceu6-blackpill/libopencm3/lib/libopencm3_stm32f1.a(st_usbfs_core.o)
 .data          0x0000000000000000        0x0 /home/maddocks/src/i2c-star-stm32f411ceu6-blackpill/libopencm3/lib/libopencm3_stm32f1.a(st_usbfs_core.o)
 .bss           0x0000000000000000        0x0 /home/maddocks/src/i2c-star-stm32f411ceu6-blackpill/libopencm3/lib/libopencm3_stm32f1.a(st_usbfs_core.o)
 .debug_macro   0x0000000000000000      0xa90 /home/maddocks/src/i2c-star-stm32f411ceu6-blackpill/libopencm3/lib/libopencm3_stm32f1.a(st_usbfs_core.o)
 .debug_macro   0x0000000000000000       0x1c /home/maddocks/src/i2c-star-stm32f411ceu6-blackpill/libopencm3/lib/libopencm3_stm32f1.a(st_usbfs_core.o)
 .debug_macro   0x0000000000000000      0x34e /home/maddocks/src/i2c-star-stm32f411ceu6-blackpill/libopencm3/lib/libopencm3_stm32f1.a(st_usbfs_core.o)
 .debug_macro   0x0000000000000000       0x22 /home/maddocks/src/i2c-star-stm32f411ceu6-blackpill/libopencm3/lib/libopencm3_stm32f1.a(st_usbfs_core.o)
 .debug_macro   0x0000000000000000       0xe8 /home/maddocks/src/i2c-star-stm32f411ceu6-blackpill/libopencm3/lib/libopencm3_stm32f1.a(st_usbfs_core.o)
 .debug_macro   0x0000000000000000       0x76 /home/maddocks/src/i2c-star-stm32f411ceu6-blackpill/libopencm3/lib/libopencm3_stm32f1.a(st_usbfs_core.o)
 .debug_macro   0x0000000000000000      0x1b4 /home/maddocks/src/i2c-star-stm32f411ceu6-blackpill/libopencm3/lib/libopencm3_stm32f1.a(st_usbfs_core.o)
 .debug_macro   0x0000000000000000      0x82c /home/maddocks/src/i2c-star-stm32f411ceu6-blackpill/libopencm3/lib/libopencm3_stm32f1.a(st_usbfs_core.o)
 .debug_macro   0x0000000000000000       0x3a /home/maddocks/src/i2c-star-stm32f411ceu6-blackpill/libopencm3/lib/libopencm3_stm32f1.a(st_usbfs_core.o)
 .debug_macro   0x0000000000000000      0x29e /home/maddocks/src/i2c-star-stm32f411ceu6-blackpill/libopencm3/lib/libopencm3_stm32f1.a(st_usbfs_core.o)
 .debug_macro   0x0000000000000000       0x28 /home/maddocks/src/i2c-star-stm32f411ceu6-blackpill/libopencm3/lib/libopencm3_stm32f1.a(st_usbfs_core.o)
 .debug_macro   0x0000000000000000      0x1a2 /home/maddocks/src/i2c-star-stm32f411ceu6-blackpill/libopencm3/lib/libopencm3_stm32f1.a(st_usbfs_core.o)
 .debug_macro   0x0000000000000000       0x10 /home/maddocks/src/i2c-star-stm32f411ceu6-blackpill/libopencm3/lib/libopencm3_stm32f1.a(st_usbfs_core.o)
 .debug_macro   0x0000000000000000       0x1c /home/maddocks/src/i2c-star-stm32f411ceu6-blackpill/libopencm3/lib/libopencm3_stm32f1.a(st_usbfs_core.o)
 .debug_macro   0x0000000000000000       0x10 /home/maddocks/src/i2c-star-stm32f411ceu6-blackpill/libopencm3/lib/libopencm3_stm32f1.a(st_usbfs_core.o)
 .data          0x0000000000000000        0x0 /usr/lib/gcc/arm-none-eabi/9.2.1/../../../arm-none-eabi/lib/thumb/v7-m/nofp/libc.a(lib_a-abort.o)
 .bss           0x0000000000000000        0x0 /usr/lib/gcc/arm-none-eabi/9.2.1/../../../arm-none-eabi/lib/thumb/v7-m/nofp/libc.a(lib_a-abort.o)
 .text          0x0000000000000000        0x0 /usr/lib/gcc/arm-none-eabi/9.2.1/../../../arm-none-eabi/lib/thumb/v7-m/nofp/libc.a(lib_a-ctype_.o)
 .data          0x0000000000000000        0x0 /usr/lib/gcc/arm-none-eabi/9.2.1/../../../arm-none-eabi/lib/thumb/v7-m/nofp/libc.a(lib_a-ctype_.o)
 .bss           0x0000000000000000        0x0 /usr/lib/gcc/arm-none-eabi/9.2.1/../../../arm-none-eabi/lib/thumb/v7-m/nofp/libc.a(lib_a-ctype_.o)
 .data          0x0000000000000000        0x0 /usr/lib/gcc/arm-none-eabi/9.2.1/../../../arm-none-eabi/lib/thumb/v7-m/nofp/libc.a(lib_a-errno.o)
 .bss           0x0000000000000000        0x0 /usr/lib/gcc/arm-none-eabi/9.2.1/../../../arm-none-eabi/lib/thumb/v7-m/nofp/libc.a(lib_a-errno.o)
 .data          0x0000000000000000        0x0 /usr/lib/gcc/arm-none-eabi/9.2.1/../../../arm-none-eabi/lib/thumb/v7-m/nofp/libc.a(lib_a-fflush.o)
 .bss           0x0000000000000000        0x0 /usr/lib/gcc/arm-none-eabi/9.2.1/../../../arm-none-eabi/lib/thumb/v7-m/nofp/libc.a(lib_a-fflush.o)
 .data          0x0000000000000000        0x0 /usr/lib/gcc/arm-none-eabi/9.2.1/../../../arm-none-eabi/lib/thumb/v7-m/nofp/libc.a(lib_a-findfp.o)
 .bss           0x0000000000000000        0x0 /usr/lib/gcc/arm-none-eabi/9.2.1/../../../arm-none-eabi/lib/thumb/v7-m/nofp/libc.a(lib_a-findfp.o)
 .data          0x0000000000000000        0x0 /usr/lib/gcc/arm-none-eabi/9.2.1/../../../arm-none-eabi/lib/thumb/v7-m/nofp/libc.a(lib_a-fprintf.o)
 .bss           0x0000000000000000        0x0 /usr/lib/gcc/arm-none-eabi/9.2.1/../../../arm-none-eabi/lib/thumb/v7-m/nofp/libc.a(lib_a-fprintf.o)
 .data          0x0000000000000000        0x0 /usr/lib/gcc/arm-none-eabi/9.2.1/../../../arm-none-eabi/lib/thumb/v7-m/nofp/libc.a(lib_a-fputc.o)
 .bss           0x0000000000000000        0x0 /usr/lib/gcc/arm-none-eabi/9.2.1/../../../arm-none-eabi/lib/thumb/v7-m/nofp/libc.a(lib_a-fputc.o)
 .data          0x0000000000000000        0x0 /usr/lib/gcc/arm-none-eabi/9.2.1/../../../arm-none-eabi/lib/thumb/v7-m/nofp/libc.a(lib_a-fputs.o)
 .bss           0x0000000000000000        0x0 /usr/lib/gcc/arm-none-eabi/9.2.1/../../../arm-none-eabi/lib/thumb/v7-m/nofp/libc.a(lib_a-fputs.o)
 .data          0x0000000000000000        0x0 /usr/lib/gcc/arm-none-eabi/9.2.1/../../../arm-none-eabi/lib/thumb/v7-m/nofp/libc.a(lib_a-freer.o)
 .bss           0x0000000000000000        0x0 /usr/lib/gcc/arm-none-eabi/9.2.1/../../../arm-none-eabi/lib/thumb/v7-m/nofp/libc.a(lib_a-freer.o)
 .data          0x0000000000000000        0x0 /usr/lib/gcc/arm-none-eabi/9.2.1/../../../arm-none-eabi/lib/thumb/v7-m/nofp/libc.a(lib_a-fvwrite.o)
 .bss           0x0000000000000000        0x0 /usr/lib/gcc/arm-none-eabi/9.2.1/../../../arm-none-eabi/lib/thumb/v7-m/nofp/libc.a(lib_a-fvwrite.o)
 .data          0x0000000000000000        0x0 /usr/lib/gcc/arm-none-eabi/9.2.1/../../../arm-none-eabi/lib/thumb/v7-m/nofp/libc.a(lib_a-fwalk.o)
 .bss           0x0000000000000000        0x0 /usr/lib/gcc/arm-none-eabi/9.2.1/../../../arm-none-eabi/lib/thumb/v7-m/nofp/libc.a(lib_a-fwalk.o)
 .text          0x0000000000000000        0x0 /usr/lib/gcc/arm-none-eabi/9.2.1/../../../arm-none-eabi/lib/thumb/v7-m/nofp/libc.a(lib_a-impure.o)
 .bss           0x0000000000000000        0x0 /usr/lib/gcc/arm-none-eabi/9.2.1/../../../arm-none-eabi/lib/thumb/v7-m/nofp/libc.a(lib_a-impure.o)
 .text          0x0000000000000000       0x20 /usr/lib/gcc/arm-none-eabi/9.2.1/../../../arm-none-eabi/lib/thumb/v7-m/nofp/libc.a(lib_a-malloc.o)
 .data          0x0000000000000000        0x0 /usr/lib/gcc/arm-none-eabi/9.2.1/../../../arm-none-eabi/lib/thumb/v7-m/nofp/libc.a(lib_a-malloc.o)
 .bss           0x0000000000000000        0x0 /usr/lib/gcc/arm-none-eabi/9.2.1/../../../arm-none-eabi/lib/thumb/v7-m/nofp/libc.a(lib_a-malloc.o)
 .debug_info    0x0000000000000000      0x9b6 /usr/lib/gcc/arm-none-eabi/9.2.1/../../../arm-none-eabi/lib/thumb/v7-m/nofp/libc.a(lib_a-malloc.o)
 .debug_abbrev  0x0000000000000000      0x230 /usr/lib/gcc/arm-none-eabi/9.2.1/../../../arm-none-eabi/lib/thumb/v7-m/nofp/libc.a(lib_a-malloc.o)
 .debug_loc     0x0000000000000000       0x64 /usr/lib/gcc/arm-none-eabi/9.2.1/../../../arm-none-eabi/lib/thumb/v7-m/nofp/libc.a(lib_a-malloc.o)
 .debug_aranges
                0x0000000000000000       0x20 /usr/lib/gcc/arm-none-eabi/9.2.1/../../../arm-none-eabi/lib/thumb/v7-m/nofp/libc.a(lib_a-malloc.o)
 .debug_line    0x0000000000000000      0x15e /usr/lib/gcc/arm-none-eabi/9.2.1/../../../arm-none-eabi/lib/thumb/v7-m/nofp/libc.a(lib_a-malloc.o)
 .debug_str     0x0000000000000000      0x5c9 /usr/lib/gcc/arm-none-eabi/9.2.1/../../../arm-none-eabi/lib/thumb/v7-m/nofp/libc.a(lib_a-malloc.o)
 .comment       0x0000000000000000       0x4f /usr/lib/gcc/arm-none-eabi/9.2.1/../../../arm-none-eabi/lib/thumb/v7-m/nofp/libc.a(lib_a-malloc.o)
 .debug_frame   0x0000000000000000       0x30 /usr/lib/gcc/arm-none-eabi/9.2.1/../../../arm-none-eabi/lib/thumb/v7-m/nofp/libc.a(lib_a-malloc.o)
 .ARM.attributes
                0x0000000000000000       0x2d /usr/lib/gcc/arm-none-eabi/9.2.1/../../../arm-none-eabi/lib/thumb/v7-m/nofp/libc.a(lib_a-malloc.o)
 .data          0x0000000000000000        0x0 /usr/lib/gcc/arm-none-eabi/9.2.1/../../../arm-none-eabi/lib/thumb/v7-m/nofp/libc.a(lib_a-memchr-stub.o)
 .bss           0x0000000000000000        0x0 /usr/lib/gcc/arm-none-eabi/9.2.1/../../../arm-none-eabi/lib/thumb/v7-m/nofp/libc.a(lib_a-memchr-stub.o)
 .data          0x0000000000000000        0x0 /usr/lib/gcc/arm-none-eabi/9.2.1/../../../arm-none-eabi/lib/thumb/v7-m/nofp/libc.a(lib_a-memcpy.o)
 .bss           0x0000000000000000        0x0 /usr/lib/gcc/arm-none-eabi/9.2.1/../../../arm-none-eabi/lib/thumb/v7-m/nofp/libc.a(lib_a-memcpy.o)
 .data          0x0000000000000000        0x0 /usr/lib/gcc/arm-none-eabi/9.2.1/../../../arm-none-eabi/lib/thumb/v7-m/nofp/libc.a(lib_a-memmove.o)
 .bss           0x0000000000000000        0x0 /usr/lib/gcc/arm-none-eabi/9.2.1/../../../arm-none-eabi/lib/thumb/v7-m/nofp/libc.a(lib_a-memmove.o)
 .data          0x0000000000000000        0x0 /usr/lib/gcc/arm-none-eabi/9.2.1/../../../arm-none-eabi/lib/thumb/v7-m/nofp/libc.a(lib_a-memset.o)
 .bss           0x0000000000000000        0x0 /usr/lib/gcc/arm-none-eabi/9.2.1/../../../arm-none-eabi/lib/thumb/v7-m/nofp/libc.a(lib_a-memset.o)
 .data          0x0000000000000000        0x0 /usr/lib/gcc/arm-none-eabi/9.2.1/../../../arm-none-eabi/lib/thumb/v7-m/nofp/libc.a(lib_a-mlock.o)
 .bss           0x0000000000000000        0x0 /usr/lib/gcc/arm-none-eabi/9.2.1/../../../arm-none-eabi/lib/thumb/v7-m/nofp/libc.a(lib_a-mlock.o)
 .data          0x0000000000000000        0x0 /usr/lib/gcc/arm-none-eabi/9.2.1/../../../arm-none-eabi/lib/thumb/v7-m/nofp/libc.a(lib_a-putc.o)
 .bss           0x0000000000000000        0x0 /usr/lib/gcc/arm-none-eabi/9.2.1/../../../arm-none-eabi/lib/thumb/v7-m/nofp/libc.a(lib_a-putc.o)
 .data          0x0000000000000000        0x0 /usr/lib/gcc/arm-none-eabi/9.2.1/../../../arm-none-eabi/lib/thumb/v7-m/nofp/libc.a(lib_a-puts.o)
 .bss           0x0000000000000000        0x0 /usr/lib/gcc/arm-none-eabi/9.2.1/../../../arm-none-eabi/lib/thumb/v7-m/nofp/libc.a(lib_a-puts.o)
 .data          0x0000000000000000        0x0 /usr/lib/gcc/arm-none-eabi/9.2.1/../../../arm-none-eabi/lib/thumb/v7-m/nofp/libc.a(lib_a-reallocr.o)
 .bss           0x0000000000000000        0x0 /usr/lib/gcc/arm-none-eabi/9.2.1/../../../arm-none-eabi/lib/thumb/v7-m/nofp/libc.a(lib_a-reallocr.o)
 .data          0x0000000000000000        0x0 /usr/lib/gcc/arm-none-eabi/9.2.1/../../../arm-none-eabi/lib/thumb/v7-m/nofp/libc.a(lib_a-sbrkr.o)
 .bss           0x0000000000000000        0x0 /usr/lib/gcc/arm-none-eabi/9.2.1/../../../arm-none-eabi/lib/thumb/v7-m/nofp/libc.a(lib_a-sbrkr.o)
 .data          0x0000000000000000        0x0 /usr/lib/gcc/arm-none-eabi/9.2.1/../../../arm-none-eabi/lib/thumb/v7-m/nofp/libc.a(lib_a-signal.o)
 .bss           0x0000000000000000        0x0 /usr/lib/gcc/arm-none-eabi/9.2.1/../../../arm-none-eabi/lib/thumb/v7-m/nofp/libc.a(lib_a-signal.o)
 .data          0x0000000000000000        0x0 /usr/lib/gcc/arm-none-eabi/9.2.1/../../../arm-none-eabi/lib/thumb/v7-m/nofp/libc.a(lib_a-signalr.o)
 .bss           0x0000000000000000        0x0 /usr/lib/gcc/arm-none-eabi/9.2.1/../../../arm-none-eabi/lib/thumb/v7-m/nofp/libc.a(lib_a-signalr.o)
 .data          0x0000000000000000        0x0 /usr/lib/gcc/arm-none-eabi/9.2.1/../../../arm-none-eabi/lib/thumb/v7-m/nofp/libc.a(lib_a-stdio.o)
 .bss           0x0000000000000000        0x0 /usr/lib/gcc/arm-none-eabi/9.2.1/../../../arm-none-eabi/lib/thumb/v7-m/nofp/libc.a(lib_a-stdio.o)
 .data          0x0000000000000000        0x0 /usr/lib/gcc/arm-none-eabi/9.2.1/../../../arm-none-eabi/lib/thumb/v7-m/nofp/libc.a(lib_a-strcmp.o)
 .bss           0x0000000000000000        0x0 /usr/lib/gcc/arm-none-eabi/9.2.1/../../../arm-none-eabi/lib/thumb/v7-m/nofp/libc.a(lib_a-strcmp.o)
 .data          0x0000000000000000        0x0 /usr/lib/gcc/arm-none-eabi/9.2.1/../../../arm-none-eabi/lib/thumb/v7-m/nofp/libc.a(lib_a-strlen-stub.o)
 .bss           0x0000000000000000        0x0 /usr/lib/gcc/arm-none-eabi/9.2.1/../../../arm-none-eabi/lib/thumb/v7-m/nofp/libc.a(lib_a-strlen-stub.o)
 .data          0x0000000000000000        0x0 /usr/lib/gcc/arm-none-eabi/9.2.1/../../../arm-none-eabi/lib/thumb/v7-m/nofp/libc.a(lib_a-vfprintf.o)
 .bss           0x0000000000000000        0x0 /usr/lib/gcc/arm-none-eabi/9.2.1/../../../arm-none-eabi/lib/thumb/v7-m/nofp/libc.a(lib_a-vfprintf.o)
 .data          0x0000000000000000        0x0 /usr/lib/gcc/arm-none-eabi/9.2.1/../../../arm-none-eabi/lib/thumb/v7-m/nofp/libc.a(lib_a-wbuf.o)
 .bss           0x0000000000000000        0x0 /usr/lib/gcc/arm-none-eabi/9.2.1/../../../arm-none-eabi/lib/thumb/v7-m/nofp/libc.a(lib_a-wbuf.o)
 .data          0x0000000000000000        0x0 /usr/lib/gcc/arm-none-eabi/9.2.1/../../../arm-none-eabi/lib/thumb/v7-m/nofp/libc.a(lib_a-writer.o)
 .bss           0x0000000000000000        0x0 /usr/lib/gcc/arm-none-eabi/9.2.1/../../../arm-none-eabi/lib/thumb/v7-m/nofp/libc.a(lib_a-writer.o)
 .data          0x0000000000000000        0x0 /usr/lib/gcc/arm-none-eabi/9.2.1/../../../arm-none-eabi/lib/thumb/v7-m/nofp/libc.a(lib_a-wsetup.o)
 .bss           0x0000000000000000        0x0 /usr/lib/gcc/arm-none-eabi/9.2.1/../../../arm-none-eabi/lib/thumb/v7-m/nofp/libc.a(lib_a-wsetup.o)
 .data          0x0000000000000000        0x0 /usr/lib/gcc/arm-none-eabi/9.2.1/../../../arm-none-eabi/lib/thumb/v7-m/nofp/libc.a(lib_a-closer.o)
 .bss           0x0000000000000000        0x0 /usr/lib/gcc/arm-none-eabi/9.2.1/../../../arm-none-eabi/lib/thumb/v7-m/nofp/libc.a(lib_a-closer.o)
 .data          0x0000000000000000        0x0 /usr/lib/gcc/arm-none-eabi/9.2.1/../../../arm-none-eabi/lib/thumb/v7-m/nofp/libc.a(lib_a-dtoa.o)
 .bss           0x0000000000000000        0x0 /usr/lib/gcc/arm-none-eabi/9.2.1/../../../arm-none-eabi/lib/thumb/v7-m/nofp/libc.a(lib_a-dtoa.o)
 .data          0x0000000000000000        0x0 /usr/lib/gcc/arm-none-eabi/9.2.1/../../../arm-none-eabi/lib/thumb/v7-m/nofp/libc.a(lib_a-fclose.o)
 .bss           0x0000000000000000        0x0 /usr/lib/gcc/arm-none-eabi/9.2.1/../../../arm-none-eabi/lib/thumb/v7-m/nofp/libc.a(lib_a-fclose.o)
 .data          0x0000000000000000        0x0 /usr/lib/gcc/arm-none-eabi/9.2.1/../../../arm-none-eabi/lib/thumb/v7-m/nofp/libc.a(lib_a-localeconv.o)
 .bss           0x0000000000000000        0x0 /usr/lib/gcc/arm-none-eabi/9.2.1/../../../arm-none-eabi/lib/thumb/v7-m/nofp/libc.a(lib_a-localeconv.o)
 .data          0x0000000000000000        0x0 /usr/lib/gcc/arm-none-eabi/9.2.1/../../../arm-none-eabi/lib/thumb/v7-m/nofp/libc.a(lib_a-lseekr.o)
 .bss           0x0000000000000000        0x0 /usr/lib/gcc/arm-none-eabi/9.2.1/../../../arm-none-eabi/lib/thumb/v7-m/nofp/libc.a(lib_a-lseekr.o)
 .data          0x0000000000000000        0x0 /usr/lib/gcc/arm-none-eabi/9.2.1/../../../arm-none-eabi/lib/thumb/v7-m/nofp/libc.a(lib_a-makebuf.o)
 .bss           0x0000000000000000        0x0 /usr/lib/gcc/arm-none-eabi/9.2.1/../../../arm-none-eabi/lib/thumb/v7-m/nofp/libc.a(lib_a-makebuf.o)
 .data          0x0000000000000000        0x0 /usr/lib/gcc/arm-none-eabi/9.2.1/../../../arm-none-eabi/lib/thumb/v7-m/nofp/libc.a(lib_a-mprec.o)
 .bss           0x0000000000000000        0x0 /usr/lib/gcc/arm-none-eabi/9.2.1/../../../arm-none-eabi/lib/thumb/v7-m/nofp/libc.a(lib_a-mprec.o)
 .data          0x0000000000000000        0x0 /usr/lib/gcc/arm-none-eabi/9.2.1/../../../arm-none-eabi/lib/thumb/v7-m/nofp/libc.a(lib_a-readr.o)
 .bss           0x0000000000000000        0x0 /usr/lib/gcc/arm-none-eabi/9.2.1/../../../arm-none-eabi/lib/thumb/v7-m/nofp/libc.a(lib_a-readr.o)
 .text          0x0000000000000000       0xa4 /usr/lib/gcc/arm-none-eabi/9.2.1/../../../arm-none-eabi/lib/thumb/v7-m/nofp/libc.a(lib_a-reent.o)
 .data          0x0000000000000000        0x0 /usr/lib/gcc/arm-none-eabi/9.2.1/../../../arm-none-eabi/lib/thumb/v7-m/nofp/libc.a(lib_a-reent.o)
 .bss           0x0000000000000000        0x0 /usr/lib/gcc/arm-none-eabi/9.2.1/../../../arm-none-eabi/lib/thumb/v7-m/nofp/libc.a(lib_a-reent.o)
 .data          0x0000000000000000        0x0 /usr/lib/gcc/arm-none-eabi/9.2.1/../../../arm-none-eabi/lib/thumb/v7-m/nofp/libc.a(lib_a-vfiprintf.o)
 .bss           0x0000000000000000        0x0 /usr/lib/gcc/arm-none-eabi/9.2.1/../../../arm-none-eabi/lib/thumb/v7-m/nofp/libc.a(lib_a-vfiprintf.o)
 .data          0x0000000000000000        0x0 /usr/lib/gcc/arm-none-eabi/9.2.1/../../../arm-none-eabi/lib/thumb/v7-m/nofp/libc.a(lib_a-assert.o)
 .bss           0x0000000000000000        0x0 /usr/lib/gcc/arm-none-eabi/9.2.1/../../../arm-none-eabi/lib/thumb/v7-m/nofp/libc.a(lib_a-assert.o)
 .data          0x0000000000000000        0x0 /usr/lib/gcc/arm-none-eabi/9.2.1/../../../arm-none-eabi/lib/thumb/v7-m/nofp/libc.a(lib_a-callocr.o)
 .bss           0x0000000000000000        0x0 /usr/lib/gcc/arm-none-eabi/9.2.1/../../../arm-none-eabi/lib/thumb/v7-m/nofp/libc.a(lib_a-callocr.o)
 .data          0x0000000000000000        0x0 /usr/lib/gcc/arm-none-eabi/9.2.1/../../../arm-none-eabi/lib/thumb/v7-m/nofp/libc.a(lib_a-fiprintf.o)
 .bss           0x0000000000000000        0x0 /usr/lib/gcc/arm-none-eabi/9.2.1/../../../arm-none-eabi/lib/thumb/v7-m/nofp/libc.a(lib_a-fiprintf.o)
 .data          0x0000000000000000        0x0 /usr/lib/gcc/arm-none-eabi/9.2.1/../../../arm-none-eabi/lib/thumb/v7-m/nofp/libc.a(lib_a-fputwc.o)
 .bss           0x0000000000000000        0x0 /usr/lib/gcc/arm-none-eabi/9.2.1/../../../arm-none-eabi/lib/thumb/v7-m/nofp/libc.a(lib_a-fputwc.o)
 .data          0x0000000000000000        0x0 /usr/lib/gcc/arm-none-eabi/9.2.1/../../../arm-none-eabi/lib/thumb/v7-m/nofp/libc.a(lib_a-fstatr.o)
 .bss           0x0000000000000000        0x0 /usr/lib/gcc/arm-none-eabi/9.2.1/../../../arm-none-eabi/lib/thumb/v7-m/nofp/libc.a(lib_a-fstatr.o)
 .data          0x0000000000000000        0x0 /usr/lib/gcc/arm-none-eabi/9.2.1/../../../arm-none-eabi/lib/thumb/v7-m/nofp/libc.a(lib_a-isattyr.o)
 .bss           0x0000000000000000        0x0 /usr/lib/gcc/arm-none-eabi/9.2.1/../../../arm-none-eabi/lib/thumb/v7-m/nofp/libc.a(lib_a-isattyr.o)
 .bss           0x0000000000000000        0x4 /usr/lib/gcc/arm-none-eabi/9.2.1/../../../arm-none-eabi/lib/thumb/v7-m/nofp/libc.a(lib_a-locale.o)
 .data          0x0000000000000000        0x0 /usr/lib/gcc/arm-none-eabi/9.2.1/../../../arm-none-eabi/lib/thumb/v7-m/nofp/libc.a(lib_a-mbtowc_r.o)
 .bss           0x0000000000000000        0x0 /usr/lib/gcc/arm-none-eabi/9.2.1/../../../arm-none-eabi/lib/thumb/v7-m/nofp/libc.a(lib_a-mbtowc_r.o)
 .data          0x0000000000000000        0x0 /usr/lib/gcc/arm-none-eabi/9.2.1/../../../arm-none-eabi/lib/thumb/v7-m/nofp/libc.a(lib_a-wcrtomb.o)
 .bss           0x0000000000000000        0x0 /usr/lib/gcc/arm-none-eabi/9.2.1/../../../arm-none-eabi/lib/thumb/v7-m/nofp/libc.a(lib_a-wcrtomb.o)
 .data          0x0000000000000000        0x0 /usr/lib/gcc/arm-none-eabi/9.2.1/../../../arm-none-eabi/lib/thumb/v7-m/nofp/libc.a(lib_a-wctomb_r.o)
 .bss           0x0000000000000000        0x0 /usr/lib/gcc/arm-none-eabi/9.2.1/../../../arm-none-eabi/lib/thumb/v7-m/nofp/libc.a(lib_a-wctomb_r.o)
 .text          0x0000000000000000      0x254 /usr/lib/gcc/arm-none-eabi/9.2.1/thumb/v7-m/nofp/libgcc.a(_arm_muldf3.o)
 .data          0x0000000000000000        0x0 /usr/lib/gcc/arm-none-eabi/9.2.1/thumb/v7-m/nofp/libgcc.a(_arm_muldf3.o)
 .bss           0x0000000000000000        0x0 /usr/lib/gcc/arm-none-eabi/9.2.1/thumb/v7-m/nofp/libgcc.a(_arm_muldf3.o)
 .debug_line    0x0000000000000000      0x10c /usr/lib/gcc/arm-none-eabi/9.2.1/thumb/v7-m/nofp/libgcc.a(_arm_muldf3.o)
 .debug_info    0x0000000000000000       0x26 /usr/lib/gcc/arm-none-eabi/9.2.1/thumb/v7-m/nofp/libgcc.a(_arm_muldf3.o)
 .debug_abbrev  0x0000000000000000       0x14 /usr/lib/gcc/arm-none-eabi/9.2.1/thumb/v7-m/nofp/libgcc.a(_arm_muldf3.o)
 .debug_aranges
                0x0000000000000000       0x20 /usr/lib/gcc/arm-none-eabi/9.2.1/thumb/v7-m/nofp/libgcc.a(_arm_muldf3.o)
 .debug_str     0x0000000000000000       0xa4 /usr/lib/gcc/arm-none-eabi/9.2.1/thumb/v7-m/nofp/libgcc.a(_arm_muldf3.o)
 .debug_frame   0x0000000000000000       0x30 /usr/lib/gcc/arm-none-eabi/9.2.1/thumb/v7-m/nofp/libgcc.a(_arm_muldf3.o)
 .ARM.attributes
                0x0000000000000000       0x1d /usr/lib/gcc/arm-none-eabi/9.2.1/thumb/v7-m/nofp/libgcc.a(_arm_muldf3.o)
 .data          0x0000000000000000        0x0 /usr/lib/gcc/arm-none-eabi/9.2.1/thumb/v7-m/nofp/libgcc.a(_arm_addsubdf3.o)
 .bss           0x0000000000000000        0x0 /usr/lib/gcc/arm-none-eabi/9.2.1/thumb/v7-m/nofp/libgcc.a(_arm_addsubdf3.o)
 .data          0x0000000000000000        0x0 /usr/lib/gcc/arm-none-eabi/9.2.1/thumb/v7-m/nofp/libgcc.a(_arm_muldivdf3.o)
 .bss           0x0000000000000000        0x0 /usr/lib/gcc/arm-none-eabi/9.2.1/thumb/v7-m/nofp/libgcc.a(_arm_muldivdf3.o)
 .data          0x0000000000000000        0x0 /usr/lib/gcc/arm-none-eabi/9.2.1/thumb/v7-m/nofp/libgcc.a(_arm_cmpdf2.o)
 .bss           0x0000000000000000        0x0 /usr/lib/gcc/arm-none-eabi/9.2.1/thumb/v7-m/nofp/libgcc.a(_arm_cmpdf2.o)
 .data          0x0000000000000000        0x0 /usr/lib/gcc/arm-none-eabi/9.2.1/thumb/v7-m/nofp/libgcc.a(_arm_unorddf2.o)
 .bss           0x0000000000000000        0x0 /usr/lib/gcc/arm-none-eabi/9.2.1/thumb/v7-m/nofp/libgcc.a(_arm_unorddf2.o)
 .data          0x0000000000000000        0x0 /usr/lib/gcc/arm-none-eabi/9.2.1/thumb/v7-m/nofp/libgcc.a(_arm_fixdfsi.o)
 .bss           0x0000000000000000        0x0 /usr/lib/gcc/arm-none-eabi/9.2.1/thumb/v7-m/nofp/libgcc.a(_arm_fixdfsi.o)
 .data          0x0000000000000000        0x0 /usr/lib/gcc/arm-none-eabi/9.2.1/thumb/v7-m/nofp/libgcc.a(_aeabi_uldivmod.o)
 .bss           0x0000000000000000        0x0 /usr/lib/gcc/arm-none-eabi/9.2.1/thumb/v7-m/nofp/libgcc.a(_aeabi_uldivmod.o)
 .data          0x0000000000000000        0x0 /usr/lib/gcc/arm-none-eabi/9.2.1/thumb/v7-m/nofp/libgcc.a(_udivmoddi4.o)
 .bss           0x0000000000000000        0x0 /usr/lib/gcc/arm-none-eabi/9.2.1/thumb/v7-m/nofp/libgcc.a(_udivmoddi4.o)
 .ARM.extab     0x0000000000000000        0x0 /usr/lib/gcc/arm-none-eabi/9.2.1/thumb/v7-m/nofp/libgcc.a(_udivmoddi4.o)
 .data          0x0000000000000000        0x0 /usr/lib/gcc/arm-none-eabi/9.2.1/thumb/v7-m/nofp/libgcc.a(_dvmd_tls.o)
 .bss           0x0000000000000000        0x0 /usr/lib/gcc/arm-none-eabi/9.2.1/thumb/v7-m/nofp/libgcc.a(_dvmd_tls.o)
 .data          0x0000000000000000        0x0 /usr/lib/gcc/arm-none-eabi/9.2.1/../../../arm-none-eabi/lib/thumb/v7-m/nofp/libnosys.a(close.o)
 .bss           0x0000000000000000        0x0 /usr/lib/gcc/arm-none-eabi/9.2.1/../../../arm-none-eabi/lib/thumb/v7-m/nofp/libnosys.a(close.o)
 .data          0x0000000000000000        0x0 /usr/lib/gcc/arm-none-eabi/9.2.1/../../../arm-none-eabi/lib/thumb/v7-m/nofp/libnosys.a(fstat.o)
 .bss           0x0000000000000000        0x0 /usr/lib/gcc/arm-none-eabi/9.2.1/../../../arm-none-eabi/lib/thumb/v7-m/nofp/libnosys.a(fstat.o)
 .data          0x0000000000000000        0x0 /usr/lib/gcc/arm-none-eabi/9.2.1/../../../arm-none-eabi/lib/thumb/v7-m/nofp/libnosys.a(getpid.o)
 .bss           0x0000000000000000        0x0 /usr/lib/gcc/arm-none-eabi/9.2.1/../../../arm-none-eabi/lib/thumb/v7-m/nofp/libnosys.a(getpid.o)
 .data          0x0000000000000000        0x0 /usr/lib/gcc/arm-none-eabi/9.2.1/../../../arm-none-eabi/lib/thumb/v7-m/nofp/libnosys.a(isatty.o)
 .bss           0x0000000000000000        0x0 /usr/lib/gcc/arm-none-eabi/9.2.1/../../../arm-none-eabi/lib/thumb/v7-m/nofp/libnosys.a(isatty.o)
 .data          0x0000000000000000        0x0 /usr/lib/gcc/arm-none-eabi/9.2.1/../../../arm-none-eabi/lib/thumb/v7-m/nofp/libnosys.a(kill.o)
 .bss           0x0000000000000000        0x0 /usr/lib/gcc/arm-none-eabi/9.2.1/../../../arm-none-eabi/lib/thumb/v7-m/nofp/libnosys.a(kill.o)
 .data          0x0000000000000000        0x0 /usr/lib/gcc/arm-none-eabi/9.2.1/../../../arm-none-eabi/lib/thumb/v7-m/nofp/libnosys.a(lseek.o)
 .bss           0x0000000000000000        0x0 /usr/lib/gcc/arm-none-eabi/9.2.1/../../../arm-none-eabi/lib/thumb/v7-m/nofp/libnosys.a(lseek.o)
 .data          0x0000000000000000        0x0 /usr/lib/gcc/arm-none-eabi/9.2.1/../../../arm-none-eabi/lib/thumb/v7-m/nofp/libnosys.a(read.o)
 .bss           0x0000000000000000        0x0 /usr/lib/gcc/arm-none-eabi/9.2.1/../../../arm-none-eabi/lib/thumb/v7-m/nofp/libnosys.a(read.o)
 .data          0x0000000000000000        0x0 /usr/lib/gcc/arm-none-eabi/9.2.1/../../../arm-none-eabi/lib/thumb/v7-m/nofp/libnosys.a(sbrk.o)
 .data          0x0000000000000000        0x0 /usr/lib/gcc/arm-none-eabi/9.2.1/../../../arm-none-eabi/lib/thumb/v7-m/nofp/libnosys.a(_exit.o)
 .bss           0x0000000000000000        0x0 /usr/lib/gcc/arm-none-eabi/9.2.1/../../../arm-none-eabi/lib/thumb/v7-m/nofp/libnosys.a(_exit.o)

Memory Configuration

Name             Origin             Length             Attributes
rom              0x0000000008002000 0x000000000001e000 xr
ram              0x0000000020000000 0x0000000000005000 xrw
*default*        0x0000000000000000 0xffffffffffffffff

Linker script and memory map

LOAD console.o
LOAD console_stm32.o
LOAD i2c_ctx.o
LOAD bitops.o
LOAD fibre.o
LOAD fibre_default.o
LOAD list.o
LOAD messageq.o
LOAD regdump.o
LOAD ringbuf.o
LOAD time_libopencm3.o
LOAD util.o
LOAD i2c-stm32f1-usb.o
LOAD /home/maddocks/src/i2c-star-stm32f411ceu6-blackpill/libopencm3/lib/libopencm3_stm32f1.a
START GROUP
LOAD /usr/lib/gcc/arm-none-eabi/9.2.1/../../../arm-none-eabi/lib/thumb/v7-m/nofp/libc.a
LOAD /usr/lib/gcc/arm-none-eabi/9.2.1/thumb/v7-m/nofp/libgcc.a
LOAD /usr/lib/gcc/arm-none-eabi/9.2.1/../../../arm-none-eabi/lib/thumb/v7-m/nofp/libnosys.a
END GROUP
START GROUP
LOAD /usr/lib/gcc/arm-none-eabi/9.2.1/thumb/v7-m/nofp/libgcc.a
LOAD /usr/lib/gcc/arm-none-eabi/9.2.1/../../../arm-none-eabi/lib/thumb/v7-m/nofp/libc.a
END GROUP

.text           0x0000000008002000     0x976c
 *(.vectors)
 .vectors       0x0000000008002000      0x150 /home/maddocks/src/i2c-star-stm32f411ceu6-blackpill/libopencm3/lib/libopencm3_stm32f1.a(vector.o)
                0x0000000008002000                vector_table
 *(.text*)
 .text.console_echo
                0x0000000008002150       0x34 console.o
 .text.do_prompt
                0x0000000008002184       0x28 console.o
 .text.console_unknown
                0x00000000080021ac       0x1c console.o
 .text.console_help
                0x00000000080021c8       0x80 console.o
 .text.console_init
                0x0000000008002248       0x44 console.o
                0x0000000008002248                console_init
 .text.console_register
                0x000000000800228c       0x50 console.o
                0x000000000800228c                console_register
 .text.console_putchar
                0x00000000080022dc       0x14 console.o
                0x00000000080022dc                console_putchar
 .text.console_run
                0x00000000080022f0      0x180 console.o
                0x00000000080022f0                console_run
 .text.console_fibre_endpoint
                0x0000000008002470        0x8 console.o
 .text.console_hwinit
                0x0000000008002478       0x98 console_stm32.o
                0x0000000008002478                console_hwinit
 .text.usart1_isr
                0x0000000008002510       0x80 console_stm32.o
                0x0000000008002510                usart1_isr
 .text._write   0x0000000008002590       0x60 console_stm32.o
                0x0000000008002590                _write
 .text.i2c_ctx_is_timed_out
                0x00000000080025f0       0x3c i2c_ctx.o
 .text.i2c_ctx_init
                0x000000000800262c       0x1e i2c_ctx.o
                0x000000000800262c                i2c_ctx_init
 *fill*         0x000000000800264a        0x2 
 .text.i2c_ctx_reset
                0x000000000800264c       0x68 i2c_ctx.o
                0x000000000800264c                i2c_ctx_reset
 .text.i2c_ctx_start
                0x00000000080026b4       0x44 i2c_ctx.o
                0x00000000080026b4                i2c_ctx_start
 .text.i2c_ctx_sendaddr
                0x00000000080026f8       0x78 i2c_ctx.o
                0x00000000080026f8                i2c_ctx_sendaddr
 .text.i2c_ctx_senddata
                0x0000000008002770       0x40 i2c_ctx.o
                0x0000000008002770                i2c_ctx_senddata
 .text.i2c_ctx_getdata
                0x00000000080027b0       0x60 i2c_ctx.o
                0x00000000080027b0                i2c_ctx_getdata
 .text.i2c_ctx_stop
                0x0000000008002810       0x46 i2c_ctx.o
                0x0000000008002810                i2c_ctx_stop
 .text.bitcnt   0x0000000008002856       0x2a bitops.o
                0x0000000008002856                bitcnt
 .text.ctz      0x0000000008002880        0xa bitops.o
                0x0000000008002880                ctz
 .text.duetime_cmp
                0x000000000800288a        0xc fibre.o
 .text.messageq_empty
                0x0000000008002896       0x1a fibre.o
 .text.fibre_init
                0x00000000080028b0        0xc fibre.o
                0x00000000080028b0                fibre_init
 .text.fibre_run
                0x00000000080028bc       0x34 fibre.o
                0x00000000080028bc                fibre_run
 .text.handle_atomic_runq
                0x00000000080028f0       0x24 fibre.o
 .text.fibre_scheduler_next
                0x0000000008002914       0xfc fibre.o
                0x0000000008002914                fibre_scheduler_next
 .text.fibre_run_atomic
                0x0000000008002a10       0x40 fibre.o
                0x0000000008002a10                fibre_run_atomic
 .text.fibre_timeout
                0x0000000008002a50       0x48 fibre.o
                0x0000000008002a50                fibre_timeout
 .text.fibre_scheduler_main_loop
                0x0000000008002a98        0xc fibre_default.o
                0x0000000008002a98                fibre_scheduler_main_loop
 .text.list_insert
                0x0000000008002aa4       0x10 list.o
                0x0000000008002aa4                list_insert
 .text.list_extract
                0x0000000008002ab4       0x10 list.o
                0x0000000008002ab4                list_extract
 .text.list_iterate
                0x0000000008002ac4        0x8 list.o
                0x0000000008002ac4                list_iterate
 .text.list_iterator_next
                0x0000000008002acc        0xe list.o
                0x0000000008002acc                list_iterator_next
 .text.list_iterator_insert
                0x0000000008002ada       0x10 list.o
                0x0000000008002ada                list_iterator_insert
 .text.list_insert_sorted
                0x0000000008002aea       0x46 list.o
                0x0000000008002aea                list_insert_sorted
 .text.list_iterator_remove
                0x0000000008002b30       0x1a list.o
                0x0000000008002b30                list_iterator_remove
 .text.list_contains
                0x0000000008002b4a       0x24 list.o
                0x0000000008002b4a                list_contains
 .text.list_remove
                0x0000000008002b6e       0x18 list.o
                0x0000000008002b6e                list_remove
 .text.messageq_claim
                0x0000000008002b86       0x7c messageq.o
                0x0000000008002b86                messageq_claim
 .text.messageq_send
                0x0000000008002c02       0x2c messageq.o
                0x0000000008002c02                messageq_send
 .text.messageq_receive
                0x0000000008002c2e       0x48 messageq.o
                0x0000000008002c2e                messageq_receive
 .text.messageq_release
                0x0000000008002c76       0x1a messageq.o
                0x0000000008002c76                messageq_release
 .text.fregdump_single
                0x0000000008002c90       0x58 regdump.o
                0x0000000008002c90                fregdump_single
 .text.fregdump
                0x0000000008002ce8       0x20 regdump.o
                0x0000000008002ce8                fregdump
 .text.regdump  0x0000000008002d08       0x14 regdump.o
                0x0000000008002d08                regdump
 .text.ringbuf_init
                0x0000000008002d1c        0xc ringbuf.o
                0x0000000008002d1c                ringbuf_init
 .text.ringbuf_get
                0x0000000008002d28       0x3a ringbuf.o
                0x0000000008002d28                ringbuf_get
 .text.ringbuf_put
                0x0000000008002d62       0x3a ringbuf.o
                0x0000000008002d62                ringbuf_put
 .text.time_init
                0x0000000008002d9c       0x1c time_libopencm3.o
                0x0000000008002d9c                time_init
 .text.sys_tick_handler
                0x0000000008002db8       0x18 time_libopencm3.o
                0x0000000008002db8                sys_tick_handler
 .text.time_now
                0x0000000008002dd0        0xc time_libopencm3.o
                0x0000000008002dd0                time_now
 .text.cyclecmp32
                0x0000000008002ddc        0x4 util.o
                0x0000000008002ddc                cyclecmp32
 .text.usb_fibre
                0x0000000008002de0       0xb4 i2c-stm32f1-usb.o
 .text.usb_set_config
                0x0000000008002e94       0x28 i2c-stm32f1-usb.o
 .text.do_reboot
                0x0000000008002ebc       0x38 i2c-stm32f1-usb.o
 .text.do_id    0x0000000008002ef4       0x24 i2c-stm32f1-usb.o
 .text.usb_control_request
                0x0000000008002f18      0x150 i2c-stm32f1-usb.o
 .text.startup.main
                0x0000000008003068       0xa8 i2c-stm32f1-usb.o
                0x0000000008003068                main
 .text.desig_get_unique_id
                0x0000000008003110       0x20 /home/maddocks/src/i2c-star-stm32f411ceu6-blackpill/libopencm3/lib/libopencm3_stm32f1.a(desig.o)
                0x0000000008003110                desig_get_unique_id
 .text.desig_get_unique_id_as_string
                0x0000000008003130       0x70 /home/maddocks/src/i2c-star-stm32f411ceu6-blackpill/libopencm3/lib/libopencm3_stm32f1.a(desig.o)
                0x0000000008003130                desig_get_unique_id_as_string
 .text.gpio_set_mode
                0x00000000080031a0       0x5e /home/maddocks/src/i2c-star-stm32f411ceu6-blackpill/libopencm3/lib/libopencm3_stm32f1.a(gpio.o)
                0x00000000080031a0                gpio_set_mode
 .text.gpio_clear
                0x00000000080031fe        0x6 /home/maddocks/src/i2c-star-stm32f411ceu6-blackpill/libopencm3/lib/libopencm3_stm32f1.a(gpio_common_all.o)
                0x00000000080031fe                gpio_clear
 .text.i2c_peripheral_enable
                0x0000000008003204        0xa /home/maddocks/src/i2c-star-stm32f411ceu6-blackpill/libopencm3/lib/libopencm3_stm32f1.a(i2c_common_v1.o)
                0x0000000008003204                i2c_peripheral_enable
 .text.i2c_peripheral_disable
                0x000000000800320e        0xa /home/maddocks/src/i2c-star-stm32f411ceu6-blackpill/libopencm3/lib/libopencm3_stm32f1.a(i2c_common_v1.o)
                0x000000000800320e                i2c_peripheral_disable
 .text.i2c_send_start
                0x0000000008003218        0xa /home/maddocks/src/i2c-star-stm32f411ceu6-blackpill/libopencm3/lib/libopencm3_stm32f1.a(i2c_common_v1.o)
                0x0000000008003218                i2c_send_start
 .text.i2c_send_stop
                0x0000000008003222        0xa /home/maddocks/src/i2c-star-stm32f411ceu6-blackpill/libopencm3/lib/libopencm3_stm32f1.a(i2c_common_v1.o)
                0x0000000008003222                i2c_send_stop
 .text.i2c_set_own_7bit_slave_address
                0x000000000800322c        0xa /home/maddocks/src/i2c-star-stm32f411ceu6-blackpill/libopencm3/lib/libopencm3_stm32f1.a(i2c_common_v1.o)
                0x000000000800322c                i2c_set_own_7bit_slave_address
 .text.i2c_set_clock_frequency
                0x0000000008003236        0xe /home/maddocks/src/i2c-star-stm32f411ceu6-blackpill/libopencm3/lib/libopencm3_stm32f1.a(i2c_common_v1.o)
                0x0000000008003236                i2c_set_clock_frequency
 .text.i2c_send_data
                0x0000000008003244        0x4 /home/maddocks/src/i2c-star-stm32f411ceu6-blackpill/libopencm3/lib/libopencm3_stm32f1.a(i2c_common_v1.o)
                0x0000000008003244                i2c_send_data
 .text.i2c_set_ccr
                0x0000000008003248        0xc /home/maddocks/src/i2c-star-stm32f411ceu6-blackpill/libopencm3/lib/libopencm3_stm32f1.a(i2c_common_v1.o)
                0x0000000008003248                i2c_set_ccr
 .text.i2c_set_trise
                0x0000000008003254        0x4 /home/maddocks/src/i2c-star-stm32f411ceu6-blackpill/libopencm3/lib/libopencm3_stm32f1.a(i2c_common_v1.o)
                0x0000000008003254                i2c_set_trise
 .text.i2c_send_7bit_address
                0x0000000008003258        0xa /home/maddocks/src/i2c-star-stm32f411ceu6-blackpill/libopencm3/lib/libopencm3_stm32f1.a(i2c_common_v1.o)
                0x0000000008003258                i2c_send_7bit_address
 .text.i2c_get_data
                0x0000000008003262        0x6 /home/maddocks/src/i2c-star-stm32f411ceu6-blackpill/libopencm3/lib/libopencm3_stm32f1.a(i2c_common_v1.o)
                0x0000000008003262                i2c_get_data
 .text.rcc_osc_on.part.0
                0x0000000008003268       0x10 /home/maddocks/src/i2c-star-stm32f411ceu6-blackpill/libopencm3/lib/libopencm3_stm32f1.a(rcc.o)
 .text.rcc_is_osc_ready
                0x0000000008003278       0x5c /home/maddocks/src/i2c-star-stm32f411ceu6-blackpill/libopencm3/lib/libopencm3_stm32f1.a(rcc.o)
                0x0000000008003278                rcc_is_osc_ready
 .text.rcc_wait_for_osc_ready
                0x00000000080032d4       0x10 /home/maddocks/src/i2c-star-stm32f411ceu6-blackpill/libopencm3/lib/libopencm3_stm32f1.a(rcc.o)
                0x00000000080032d4                rcc_wait_for_osc_ready
 .text.rcc_osc_on
                0x00000000080032e4       0x54 /home/maddocks/src/i2c-star-stm32f411ceu6-blackpill/libopencm3/lib/libopencm3_stm32f1.a(rcc.o)
                0x00000000080032e4                rcc_osc_on
 .text.rcc_set_sysclk_source
                0x0000000008003338       0x14 /home/maddocks/src/i2c-star-stm32f411ceu6-blackpill/libopencm3/lib/libopencm3_stm32f1.a(rcc.o)
                0x0000000008003338                rcc_set_sysclk_source
 .text.rcc_set_pll_multiplication_factor
                0x000000000800334c       0x14 /home/maddocks/src/i2c-star-stm32f411ceu6-blackpill/libopencm3/lib/libopencm3_stm32f1.a(rcc.o)
                0x000000000800334c                rcc_set_pll_multiplication_factor
 .text.rcc_set_pll_source
                0x0000000008003360       0x14 /home/maddocks/src/i2c-star-stm32f411ceu6-blackpill/libopencm3/lib/libopencm3_stm32f1.a(rcc.o)
                0x0000000008003360                rcc_set_pll_source
 .text.rcc_set_pllxtpre
                0x0000000008003374       0x14 /home/maddocks/src/i2c-star-stm32f411ceu6-blackpill/libopencm3/lib/libopencm3_stm32f1.a(rcc.o)
                0x0000000008003374                rcc_set_pllxtpre
 .text.rcc_set_adcpre
                0x0000000008003388       0x14 /home/maddocks/src/i2c-star-stm32f411ceu6-blackpill/libopencm3/lib/libopencm3_stm32f1.a(rcc.o)
                0x0000000008003388                rcc_set_adcpre
 .text.rcc_set_ppre2
                0x000000000800339c       0x14 /home/maddocks/src/i2c-star-stm32f411ceu6-blackpill/libopencm3/lib/libopencm3_stm32f1.a(rcc.o)
                0x000000000800339c                rcc_set_ppre2
 .text.rcc_set_ppre1
                0x00000000080033b0       0x14 /home/maddocks/src/i2c-star-stm32f411ceu6-blackpill/libopencm3/lib/libopencm3_stm32f1.a(rcc.o)
                0x00000000080033b0                rcc_set_ppre1
 .text.rcc_set_hpre
                0x00000000080033c4       0x14 /home/maddocks/src/i2c-star-stm32f411ceu6-blackpill/libopencm3/lib/libopencm3_stm32f1.a(rcc.o)
                0x00000000080033c4                rcc_set_hpre
 .text.rcc_clock_setup_in_hse_8mhz_out_72mhz
                0x00000000080033d8       0x8c /home/maddocks/src/i2c-star-stm32f411ceu6-blackpill/libopencm3/lib/libopencm3_stm32f1.a(rcc.o)
                0x00000000080033d8                rcc_clock_setup_in_hse_8mhz_out_72mhz
 .text.rcc_periph_clock_enable
                0x0000000008003464       0x1c /home/maddocks/src/i2c-star-stm32f411ceu6-blackpill/libopencm3/lib/libopencm3_stm32f1.a(rcc_common_all.o)
                0x0000000008003464                rcc_periph_clock_enable
 .text.rcc_periph_reset_pulse
                0x0000000008003480       0x24 /home/maddocks/src/i2c-star-stm32f411ceu6-blackpill/libopencm3/lib/libopencm3_stm32f1.a(rcc_common_all.o)
                0x0000000008003480                rcc_periph_reset_pulse
 .text.usart_set_baudrate
                0x00000000080034a4       0x28 /home/maddocks/src/i2c-star-stm32f411ceu6-blackpill/libopencm3/lib/libopencm3_stm32f1.a(usart_common_all.o)
                0x00000000080034a4                usart_set_baudrate
 .text.usart_set_databits
                0x00000000080034cc       0x12 /home/maddocks/src/i2c-star-stm32f411ceu6-blackpill/libopencm3/lib/libopencm3_stm32f1.a(usart_common_all.o)
                0x00000000080034cc                usart_set_databits
 .text.usart_set_stopbits
                0x00000000080034de        0xc /home/maddocks/src/i2c-star-stm32f411ceu6-blackpill/libopencm3/lib/libopencm3_stm32f1.a(usart_common_all.o)
                0x00000000080034de                usart_set_stopbits
 .text.usart_set_parity
                0x00000000080034ea        0xc /home/maddocks/src/i2c-star-stm32f411ceu6-blackpill/libopencm3/lib/libopencm3_stm32f1.a(usart_common_all.o)
                0x00000000080034ea                usart_set_parity
 .text.usart_set_mode
                0x00000000080034f6        0xc /home/maddocks/src/i2c-star-stm32f411ceu6-blackpill/libopencm3/lib/libopencm3_stm32f1.a(usart_common_all.o)
                0x00000000080034f6                usart_set_mode
 .text.usart_set_flow_control
                0x0000000008003502        0xc /home/maddocks/src/i2c-star-stm32f411ceu6-blackpill/libopencm3/lib/libopencm3_stm32f1.a(usart_common_all.o)
                0x0000000008003502                usart_set_flow_control
 .text.usart_enable
                0x000000000800350e        0xa /home/maddocks/src/i2c-star-stm32f411ceu6-blackpill/libopencm3/lib/libopencm3_stm32f1.a(usart_common_all.o)
                0x000000000800350e                usart_enable
 .text.usart_send
                0x0000000008003518        0x8 /home/maddocks/src/i2c-star-stm32f411ceu6-blackpill/libopencm3/lib/libopencm3_stm32f1.a(usart_common_f124.o)
                0x0000000008003518                usart_send
 .text.usart_recv
                0x0000000008003520        0x8 /home/maddocks/src/i2c-star-stm32f411ceu6-blackpill/libopencm3/lib/libopencm3_stm32f1.a(usart_common_f124.o)
                0x0000000008003520                usart_recv
 .text.usbd_init
                0x0000000008003528       0x50 /home/maddocks/src/i2c-star-stm32f411ceu6-blackpill/libopencm3/lib/libopencm3_stm32f1.a(usb.o)
                0x0000000008003528                usbd_init
 .text.usbd_poll
                0x0000000008003578        0x8 /home/maddocks/src/i2c-star-stm32f411ceu6-blackpill/libopencm3/lib/libopencm3_stm32f1.a(usb.o)
                0x0000000008003578                usbd_poll
 .text.usbd_ep_setup
                0x0000000008003580        0xe /home/maddocks/src/i2c-star-stm32f411ceu6-blackpill/libopencm3/lib/libopencm3_stm32f1.a(usb.o)
                0x0000000008003580                usbd_ep_setup
 .text._usbd_reset
                0x000000000800358e       0x32 /home/maddocks/src/i2c-star-stm32f411ceu6-blackpill/libopencm3/lib/libopencm3_stm32f1.a(usb.o)
                0x000000000800358e                _usbd_reset
 .text.usbd_ep_write_packet
                0x00000000080035c0        0xe /home/maddocks/src/i2c-star-stm32f411ceu6-blackpill/libopencm3/lib/libopencm3_stm32f1.a(usb.o)
                0x00000000080035c0                usbd_ep_write_packet
 .text.usbd_ep_read_packet
                0x00000000080035ce        0xe /home/maddocks/src/i2c-star-stm32f411ceu6-blackpill/libopencm3/lib/libopencm3_stm32f1.a(usb.o)
                0x00000000080035ce                usbd_ep_read_packet
 .text.usbd_ep_stall_set
                0x00000000080035dc        0x8 /home/maddocks/src/i2c-star-stm32f411ceu6-blackpill/libopencm3/lib/libopencm3_stm32f1.a(usb.o)
                0x00000000080035dc                usbd_ep_stall_set
 .text.usbd_ep_stall_get
                0x00000000080035e4        0x8 /home/maddocks/src/i2c-star-stm32f411ceu6-blackpill/libopencm3/lib/libopencm3_stm32f1.a(usb.o)
                0x00000000080035e4                usbd_ep_stall_get
 .text.usbd_ep_nak_set
                0x00000000080035ec        0x8 /home/maddocks/src/i2c-star-stm32f411ceu6-blackpill/libopencm3/lib/libopencm3_stm32f1.a(usb.o)
                0x00000000080035ec                usbd_ep_nak_set
 .text.usb_control_send_chunk
                0x00000000080035f4       0x52 /home/maddocks/src/i2c-star-stm32f411ceu6-blackpill/libopencm3/lib/libopencm3_stm32f1.a(usb_control.o)
 .text.usb_control_request_dispatch
                0x0000000008003646       0x60 /home/maddocks/src/i2c-star-stm32f411ceu6-blackpill/libopencm3/lib/libopencm3_stm32f1.a(usb_control.o)
 .text.stall_transaction
                0x00000000080036a6       0x14 /home/maddocks/src/i2c-star-stm32f411ceu6-blackpill/libopencm3/lib/libopencm3_stm32f1.a(usb_control.o)
 .text.usb_control_recv_chunk
                0x00000000080036ba       0x3c /home/maddocks/src/i2c-star-stm32f411ceu6-blackpill/libopencm3/lib/libopencm3_stm32f1.a(usb_control.o)
 .text.usb_control_setup_read
                0x00000000080036f6       0x66 /home/maddocks/src/i2c-star-stm32f411ceu6-blackpill/libopencm3/lib/libopencm3_stm32f1.a(usb_control.o)
 .text.usbd_register_control_callback
                0x000000000800375c       0x2c /home/maddocks/src/i2c-star-stm32f411ceu6-blackpill/libopencm3/lib/libopencm3_stm32f1.a(usb_control.o)
                0x000000000800375c                usbd_register_control_callback
 .text._usbd_control_setup
                0x0000000008003788       0x60 /home/maddocks/src/i2c-star-stm32f411ceu6-blackpill/libopencm3/lib/libopencm3_stm32f1.a(usb_control.o)
                0x0000000008003788                _usbd_control_setup
 .text._usbd_control_out
                0x00000000080037e8       0x82 /home/maddocks/src/i2c-star-stm32f411ceu6-blackpill/libopencm3/lib/libopencm3_stm32f1.a(usb_control.o)
                0x00000000080037e8                _usbd_control_out
 .text._usbd_control_in
                0x000000000800386a       0x64 /home/maddocks/src/i2c-star-stm32f411ceu6-blackpill/libopencm3/lib/libopencm3_stm32f1.a(usb_control.o)
                0x000000000800386a                _usbd_control_in
 .text.usb_standard_set_address
                0x00000000080038ce       0x2a /home/maddocks/src/i2c-star-stm32f411ceu6-blackpill/libopencm3/lib/libopencm3_stm32f1.a(usb_standard.o)
 .text.usb_standard_set_configuration
                0x00000000080038f8       0x92 /home/maddocks/src/i2c-star-stm32f411ceu6-blackpill/libopencm3/lib/libopencm3_stm32f1.a(usb_standard.o)
 .text.usb_standard_get_configuration
                0x000000000800398a       0x22 /home/maddocks/src/i2c-star-stm32f411ceu6-blackpill/libopencm3/lib/libopencm3_stm32f1.a(usb_standard.o)
 .text.usb_standard_get_interface
                0x00000000080039ac       0x34 /home/maddocks/src/i2c-star-stm32f411ceu6-blackpill/libopencm3/lib/libopencm3_stm32f1.a(usb_standard.o)
 .text.usb_standard_device_get_status
                0x00000000080039e0       0x18 /home/maddocks/src/i2c-star-stm32f411ceu6-blackpill/libopencm3/lib/libopencm3_stm32f1.a(usb_standard.o)
 .text.usb_standard_endpoint_get_status
                0x00000000080039f8       0x2a /home/maddocks/src/i2c-star-stm32f411ceu6-blackpill/libopencm3/lib/libopencm3_stm32f1.a(usb_standard.o)
 .text.usb_standard_endpoint_stall
                0x0000000008003a22       0x10 /home/maddocks/src/i2c-star-stm32f411ceu6-blackpill/libopencm3/lib/libopencm3_stm32f1.a(usb_standard.o)
 .text.usb_standard_endpoint_unstall
                0x0000000008003a32       0x10 /home/maddocks/src/i2c-star-stm32f411ceu6-blackpill/libopencm3/lib/libopencm3_stm32f1.a(usb_standard.o)
 .text.usb_standard_set_interface
                0x0000000008003a42       0x50 /home/maddocks/src/i2c-star-stm32f411ceu6-blackpill/libopencm3/lib/libopencm3_stm32f1.a(usb_standard.o)
 .text.usb_standard_get_descriptor
                0x0000000008003a92      0x26a /home/maddocks/src/i2c-star-stm32f411ceu6-blackpill/libopencm3/lib/libopencm3_stm32f1.a(usb_standard.o)
 .text.usb_standard_interface_get_status
                0x0000000008003cfc       0x18 /home/maddocks/src/i2c-star-stm32f411ceu6-blackpill/libopencm3/lib/libopencm3_stm32f1.a(usb_standard.o)
 .text.usbd_register_set_config_callback
                0x0000000008003d14       0x2c /home/maddocks/src/i2c-star-stm32f411ceu6-blackpill/libopencm3/lib/libopencm3_stm32f1.a(usb_standard.o)
                0x0000000008003d14                usbd_register_set_config_callback
 .text._usbd_standard_request_device
                0x0000000008003d40       0x48 /home/maddocks/src/i2c-star-stm32f411ceu6-blackpill/libopencm3/lib/libopencm3_stm32f1.a(usb_standard.o)
                0x0000000008003d40                _usbd_standard_request_device
 .text._usbd_standard_request_interface
                0x0000000008003d88       0x30 /home/maddocks/src/i2c-star-stm32f411ceu6-blackpill/libopencm3/lib/libopencm3_stm32f1.a(usb_standard.o)
                0x0000000008003d88                _usbd_standard_request_interface
 .text._usbd_standard_request_endpoint
                0x0000000008003db8       0x3c /home/maddocks/src/i2c-star-stm32f411ceu6-blackpill/libopencm3/lib/libopencm3_stm32f1.a(usb_standard.o)
                0x0000000008003db8                _usbd_standard_request_endpoint
 .text._usbd_standard_request
                0x0000000008003df4       0x30 /home/maddocks/src/i2c-star-stm32f411ceu6-blackpill/libopencm3/lib/libopencm3_stm32f1.a(usb_standard.o)
                0x0000000008003df4                _usbd_standard_request
 .text.st_usbfs_v1_usbd_init
                0x0000000008003e24       0x30 /home/maddocks/src/i2c-star-stm32f411ceu6-blackpill/libopencm3/lib/libopencm3_stm32f1.a(st_usbfs_v1.o)
 .text.st_usbfs_copy_to_pm
                0x0000000008003e54       0x18 /home/maddocks/src/i2c-star-stm32f411ceu6-blackpill/libopencm3/lib/libopencm3_stm32f1.a(st_usbfs_v1.o)
                0x0000000008003e54                st_usbfs_copy_to_pm
 .text.st_usbfs_copy_from_pm
                0x0000000008003e6c       0x26 /home/maddocks/src/i2c-star-stm32f411ceu6-blackpill/libopencm3/lib/libopencm3_stm32f1.a(st_usbfs_v1.o)
                0x0000000008003e6c                st_usbfs_copy_from_pm
 .text.blocking_handler
                0x0000000008003e92        0x2 /home/maddocks/src/i2c-star-stm32f411ceu6-blackpill/libopencm3/lib/libopencm3_stm32f1.a(vector.o)
                0x0000000008003e92                usart3_isr
                0x0000000008003e92                rtc_isr
                0x0000000008003e92                tim7_isr
                0x0000000008003e92                adc1_2_isr
                0x0000000008003e92                tim1_trg_com_isr
                0x0000000008003e92                usb_hp_can_tx_isr
                0x0000000008003e92                tim6_isr
                0x0000000008003e92                usb_wakeup_isr
                0x0000000008003e92                blocking_handler
                0x0000000008003e92                tim5_isr
                0x0000000008003e92                otg_fs_isr
                0x0000000008003e92                spi1_isr
                0x0000000008003e92                exti2_isr
                0x0000000008003e92                dma1_channel6_isr
                0x0000000008003e92                can_rx1_isr
                0x0000000008003e92                dma1_channel5_isr
                0x0000000008003e92                dma2_channel5_isr
                0x0000000008003e92                usage_fault_handler
                0x0000000008003e92                tim8_trg_com_isr
                0x0000000008003e92                can2_rx0_isr
                0x0000000008003e92                tim1_brk_isr
                0x0000000008003e92                can2_rx1_isr
                0x0000000008003e92                tim1_cc_isr
                0x0000000008003e92                sdio_isr
                0x0000000008003e92                eth_isr
                0x0000000008003e92                dma1_channel4_isr
                0x0000000008003e92                tim8_brk_isr
                0x0000000008003e92                dma2_channel4_5_isr
                0x0000000008003e92                pvd_isr
                0x0000000008003e92                rcc_isr
                0x0000000008003e92                flash_isr
                0x0000000008003e92                uart4_isr
                0x0000000008003e92                rtc_alarm_isr
                0x0000000008003e92                exti15_10_isr
                0x0000000008003e92                hard_fault_handler
                0x0000000008003e92                exti1_isr
                0x0000000008003e92                i2c1_ev_isr
                0x0000000008003e92                dma2_channel1_isr
                0x0000000008003e92                spi2_isr
                0x0000000008003e92                tim8_up_isr
                0x0000000008003e92                dma2_channel2_isr
                0x0000000008003e92                exti3_isr
                0x0000000008003e92                adc3_isr
                0x0000000008003e92                tim3_isr
                0x0000000008003e92                usart2_isr
                0x0000000008003e92                usb_lp_can_rx0_isr
                0x0000000008003e92                i2c2_er_isr
                0x0000000008003e92                i2c2_ev_isr
                0x0000000008003e92                uart5_isr
                0x0000000008003e92                fsmc_isr
                0x0000000008003e92                dma1_channel1_isr
                0x0000000008003e92                exti4_isr
                0x0000000008003e92                mem_manage_handler
                0x0000000008003e92                can2_tx_isr
                0x0000000008003e92                exti9_5_isr
                0x0000000008003e92                dma2_channel3_isr
                0x0000000008003e92                dma1_channel7_isr
                0x0000000008003e92                tim1_up_isr
                0x0000000008003e92                can2_sce_isr
                0x0000000008003e92                tim4_isr
                0x0000000008003e92                dma1_channel2_isr
                0x0000000008003e92                i2c1_er_isr
                0x0000000008003e92                can_sce_isr
                0x0000000008003e92                tim8_cc_isr
                0x0000000008003e92                tamper_isr
                0x0000000008003e92                eth_wkup_isr
                0x0000000008003e92                bus_fault_handler
                0x0000000008003e92                wwdg_isr
                0x0000000008003e92                dma1_channel3_isr
                0x0000000008003e92                spi3_isr
                0x0000000008003e92                tim2_isr
                0x0000000008003e92                exti0_isr
 .text.null_handler
                0x0000000008003e94        0x2 /home/maddocks/src/i2c-star-stm32f411ceu6-blackpill/libopencm3/lib/libopencm3_stm32f1.a(vector.o)
                0x0000000008003e94                null_handler
                0x0000000008003e94                sv_call_handler
                0x0000000008003e94                pend_sv_handler
                0x0000000008003e94                debug_monitor_handler
                0x0000000008003e94                nmi_handler
 *fill*         0x0000000008003e96        0x2 
 .text.reset_handler
                0x0000000008003e98       0x90 /home/maddocks/src/i2c-star-stm32f411ceu6-blackpill/libopencm3/lib/libopencm3_stm32f1.a(vector.o)
                0x0000000008003e98                reset_handler
 .text.systick_set_reload
                0x0000000008003f28       0x10 /home/maddocks/src/i2c-star-stm32f411ceu6-blackpill/libopencm3/lib/libopencm3_stm32f1.a(systick.o)
                0x0000000008003f28                systick_set_reload
 .text.systick_set_clocksource
                0x0000000008003f38       0x18 /home/maddocks/src/i2c-star-stm32f411ceu6-blackpill/libopencm3/lib/libopencm3_stm32f1.a(systick.o)
                0x0000000008003f38                systick_set_clocksource
 .text.systick_interrupt_enable
                0x0000000008003f50       0x10 /home/maddocks/src/i2c-star-stm32f411ceu6-blackpill/libopencm3/lib/libopencm3_stm32f1.a(systick.o)
                0x0000000008003f50                systick_interrupt_enable
 .text.systick_counter_enable
                0x0000000008003f60       0x10 /home/maddocks/src/i2c-star-stm32f411ceu6-blackpill/libopencm3/lib/libopencm3_stm32f1.a(systick.o)
                0x0000000008003f60                systick_counter_enable
 .text.scb_reset_system
                0x0000000008003f70       0x10 /home/maddocks/src/i2c-star-stm32f411ceu6-blackpill/libopencm3/lib/libopencm3_stm32f1.a(scb.o)
                0x0000000008003f70                scb_reset_system
 .text.nvic_enable_irq
                0x0000000008003f80       0x1a /home/maddocks/src/i2c-star-stm32f411ceu6-blackpill/libopencm3/lib/libopencm3_stm32f1.a(nvic.o)
                0x0000000008003f80                nvic_enable_irq
 *fill*         0x0000000008003f9a        0x2 
 .text.flash_set_ws
                0x0000000008003f9c       0x14 /home/maddocks/src/i2c-star-stm32f411ceu6-blackpill/libopencm3/lib/libopencm3_stm32f1.a(flash_common_all.o)
                0x0000000008003f9c                flash_set_ws
 .text.st_usbfs_set_address
                0x0000000008003fb0       0x10 /home/maddocks/src/i2c-star-stm32f411ceu6-blackpill/libopencm3/lib/libopencm3_stm32f1.a(st_usbfs_core.o)
                0x0000000008003fb0                st_usbfs_set_address
 .text.st_usbfs_set_ep_rx_bufsize
                0x0000000008003fc0       0x40 /home/maddocks/src/i2c-star-stm32f411ceu6-blackpill/libopencm3/lib/libopencm3_stm32f1.a(st_usbfs_core.o)
                0x0000000008003fc0                st_usbfs_set_ep_rx_bufsize
 .text.st_usbfs_ep_setup
                0x0000000008004000      0x124 /home/maddocks/src/i2c-star-stm32f411ceu6-blackpill/libopencm3/lib/libopencm3_stm32f1.a(st_usbfs_core.o)
                0x0000000008004000                st_usbfs_ep_setup
 .text.st_usbfs_endpoints_reset
                0x0000000008004124       0x44 /home/maddocks/src/i2c-star-stm32f411ceu6-blackpill/libopencm3/lib/libopencm3_stm32f1.a(st_usbfs_core.o)
                0x0000000008004124                st_usbfs_endpoints_reset
 .text.st_usbfs_ep_stall_set
                0x0000000008004168       0xc0 /home/maddocks/src/i2c-star-stm32f411ceu6-blackpill/libopencm3/lib/libopencm3_stm32f1.a(st_usbfs_core.o)
                0x0000000008004168                st_usbfs_ep_stall_set
 .text.st_usbfs_ep_stall_get
                0x0000000008004228       0x38 /home/maddocks/src/i2c-star-stm32f411ceu6-blackpill/libopencm3/lib/libopencm3_stm32f1.a(st_usbfs_core.o)
                0x0000000008004228                st_usbfs_ep_stall_get
 .text.st_usbfs_ep_nak_set
                0x0000000008004260       0x3c /home/maddocks/src/i2c-star-stm32f411ceu6-blackpill/libopencm3/lib/libopencm3_stm32f1.a(st_usbfs_core.o)
                0x0000000008004260                st_usbfs_ep_nak_set
 .text.st_usbfs_ep_write_packet
                0x000000000800429c       0x80 /home/maddocks/src/i2c-star-stm32f411ceu6-blackpill/libopencm3/lib/libopencm3_stm32f1.a(st_usbfs_core.o)
                0x000000000800429c                st_usbfs_ep_write_packet
 .text.st_usbfs_ep_read_packet
                0x000000000800431c       0xac /home/maddocks/src/i2c-star-stm32f411ceu6-blackpill/libopencm3/lib/libopencm3_stm32f1.a(st_usbfs_core.o)
                0x000000000800431c                st_usbfs_ep_read_packet
 .text.st_usbfs_poll
                0x00000000080043c8       0xe8 /home/maddocks/src/i2c-star-stm32f411ceu6-blackpill/libopencm3/lib/libopencm3_stm32f1.a(st_usbfs_core.o)
                0x00000000080043c8                st_usbfs_poll
 .text          0x00000000080044b0       0x10 /usr/lib/gcc/arm-none-eabi/9.2.1/../../../arm-none-eabi/lib/thumb/v7-m/nofp/libc.a(lib_a-abort.o)
                0x00000000080044b0                abort
 .text          0x00000000080044c0        0xc /usr/lib/gcc/arm-none-eabi/9.2.1/../../../arm-none-eabi/lib/thumb/v7-m/nofp/libc.a(lib_a-errno.o)
                0x00000000080044c0                __errno
 .text          0x00000000080044cc      0x19c /usr/lib/gcc/arm-none-eabi/9.2.1/../../../arm-none-eabi/lib/thumb/v7-m/nofp/libc.a(lib_a-fflush.o)
                0x00000000080044cc                __sflush_r
                0x0000000008004610                _fflush_r
                0x0000000008004644                fflush
 .text          0x0000000008004668      0x1f4 /usr/lib/gcc/arm-none-eabi/9.2.1/../../../arm-none-eabi/lib/thumb/v7-m/nofp/libc.a(lib_a-findfp.o)
                0x000000000800466c                _cleanup_r
                0x0000000008004750                __sfmoreglue
                0x0000000008004780                __sfp
                0x0000000008004808                _cleanup
                0x000000000800481c                __sinit
                0x0000000008004824                __sfp_lock_acquire
                0x0000000008004828                __sfp_lock_release
                0x000000000800482c                __sinit_lock_acquire
                0x0000000008004830                __sinit_lock_release
                0x0000000008004834                __fp_lock_all
                0x0000000008004848                __fp_unlock_all
 .text          0x000000000800485c       0x48 /usr/lib/gcc/arm-none-eabi/9.2.1/../../../arm-none-eabi/lib/thumb/v7-m/nofp/libc.a(lib_a-fprintf.o)
                0x000000000800485c                _fprintf_r
                0x000000000800487c                fprintf
 .text          0x00000000080048a4       0x68 /usr/lib/gcc/arm-none-eabi/9.2.1/../../../arm-none-eabi/lib/thumb/v7-m/nofp/libc.a(lib_a-fputc.o)
                0x00000000080048a4                _fputc_r
                0x00000000080048d4                fputc
 .text          0x000000000800490c       0x60 /usr/lib/gcc/arm-none-eabi/9.2.1/../../../arm-none-eabi/lib/thumb/v7-m/nofp/libc.a(lib_a-fputs.o)
                0x000000000800490c                _fputs_r
                0x000000000800495c                fputs
 .text          0x000000000800496c      0x294 /usr/lib/gcc/arm-none-eabi/9.2.1/../../../arm-none-eabi/lib/thumb/v7-m/nofp/libc.a(lib_a-freer.o)
                0x000000000800496c                _malloc_trim_r
                0x0000000008004a0c                _free_r
 .text          0x0000000008004c00      0x300 /usr/lib/gcc/arm-none-eabi/9.2.1/../../../arm-none-eabi/lib/thumb/v7-m/nofp/libc.a(lib_a-fvwrite.o)
                0x0000000008004c00                __sfvwrite_r
 .text          0x0000000008004f00       0x98 /usr/lib/gcc/arm-none-eabi/9.2.1/../../../arm-none-eabi/lib/thumb/v7-m/nofp/libc.a(lib_a-fwalk.o)
                0x0000000008004f00                _fwalk
                0x0000000008004f48                _fwalk_reent
 .text          0x0000000008004f98      0x548 /usr/lib/gcc/arm-none-eabi/9.2.1/../../../arm-none-eabi/lib/thumb/v7-m/nofp/libc.a(lib_a-mallocr.o)
                0x0000000008004f98                _malloc_r
 .text          0x00000000080054e0       0x8c /usr/lib/gcc/arm-none-eabi/9.2.1/../../../arm-none-eabi/lib/thumb/v7-m/nofp/libc.a(lib_a-memchr-stub.o)
                0x00000000080054e0                memchr
 .text          0x000000000800556c       0xec /usr/lib/gcc/arm-none-eabi/9.2.1/../../../arm-none-eabi/lib/thumb/v7-m/nofp/libc.a(lib_a-memcpy.o)
                0x000000000800556c                memcpy
 .text          0x0000000008005658       0xcc /usr/lib/gcc/arm-none-eabi/9.2.1/../../../arm-none-eabi/lib/thumb/v7-m/nofp/libc.a(lib_a-memmove.o)
                0x0000000008005658                memmove
 .text          0x0000000008005724       0xa0 /usr/lib/gcc/arm-none-eabi/9.2.1/../../../arm-none-eabi/lib/thumb/v7-m/nofp/libc.a(lib_a-memset.o)
                0x0000000008005724                memset
 .text          0x00000000080057c4        0x8 /usr/lib/gcc/arm-none-eabi/9.2.1/../../../arm-none-eabi/lib/thumb/v7-m/nofp/libc.a(lib_a-mlock.o)
                0x00000000080057c4                __malloc_lock
                0x00000000080057c8                __malloc_unlock
 .text          0x00000000080057cc       0xb4 /usr/lib/gcc/arm-none-eabi/9.2.1/../../../arm-none-eabi/lib/thumb/v7-m/nofp/libc.a(lib_a-putc.o)
                0x00000000080057cc                _putc_r
                0x0000000008005820                putc
 .text          0x0000000008005880       0x78 /usr/lib/gcc/arm-none-eabi/9.2.1/../../../arm-none-eabi/lib/thumb/v7-m/nofp/libc.a(lib_a-puts.o)
                0x0000000008005880                _puts_r
                0x00000000080058e8                puts
 .text          0x00000000080058f8      0x37c /usr/lib/gcc/arm-none-eabi/9.2.1/../../../arm-none-eabi/lib/thumb/v7-m/nofp/libc.a(lib_a-reallocr.o)
                0x00000000080058f8                _realloc_r
 .text          0x0000000008005c74       0x24 /usr/lib/gcc/arm-none-eabi/9.2.1/../../../arm-none-eabi/lib/thumb/v7-m/nofp/libc.a(lib_a-sbrkr.o)
                0x0000000008005c74                _sbrk_r
 .text          0x0000000008005c98      0x15c /usr/lib/gcc/arm-none-eabi/9.2.1/../../../arm-none-eabi/lib/thumb/v7-m/nofp/libc.a(lib_a-signal.o)
                0x0000000008005cc0                _init_signal_r
                0x0000000008005ccc                _signal_r
                0x0000000008005d04                _raise_r
                0x0000000008005d5c                __sigtramp_r
                0x0000000008005db0                raise
                0x0000000008005dc0                signal
                0x0000000008005dd0                _init_signal
                0x0000000008005de4                __sigtramp
 .text          0x0000000008005df4       0x2c /usr/lib/gcc/arm-none-eabi/9.2.1/../../../arm-none-eabi/lib/thumb/v7-m/nofp/libc.a(lib_a-signalr.o)
                0x0000000008005df4                _kill_r
                0x0000000008005e1c                _getpid_r
 .text          0x0000000008005e20       0x90 /usr/lib/gcc/arm-none-eabi/9.2.1/../../../arm-none-eabi/lib/thumb/v7-m/nofp/libc.a(lib_a-stdio.o)
                0x0000000008005e20                __sread
                0x0000000008005e44                __seofread
                0x0000000008005e48                __swrite
                0x0000000008005e88                __sseek
                0x0000000008005ea8                __sclose
 .text          0x0000000008005eb0      0x1bc /usr/lib/gcc/arm-none-eabi/9.2.1/../../../arm-none-eabi/lib/thumb/v7-m/nofp/libc.a(lib_a-strcmp.o)
                0x0000000008005eb0                strcmp
 .text          0x000000000800606c       0x5c /usr/lib/gcc/arm-none-eabi/9.2.1/../../../arm-none-eabi/lib/thumb/v7-m/nofp/libc.a(lib_a-strlen-stub.o)
                0x000000000800606c                strlen
 .text          0x00000000080060c8     0x15b0 /usr/lib/gcc/arm-none-eabi/9.2.1/../../../arm-none-eabi/lib/thumb/v7-m/nofp/libc.a(lib_a-vfprintf.o)
                0x00000000080060c8                _vfprintf_r
                0x00000000080075f4                vfprintf
 .text          0x0000000008007678       0xc0 /usr/lib/gcc/arm-none-eabi/9.2.1/../../../arm-none-eabi/lib/thumb/v7-m/nofp/libc.a(lib_a-wbuf.o)
                0x0000000008007678                __swbuf_r
                0x0000000008007728                __swbuf
 .text          0x0000000008007738       0x2c /usr/lib/gcc/arm-none-eabi/9.2.1/../../../arm-none-eabi/lib/thumb/v7-m/nofp/libc.a(lib_a-writer.o)
                0x0000000008007738                _write_r
 .text          0x0000000008007764       0xcc /usr/lib/gcc/arm-none-eabi/9.2.1/../../../arm-none-eabi/lib/thumb/v7-m/nofp/libc.a(lib_a-wsetup.o)
                0x0000000008007764                __swsetup_r
 .text          0x0000000008007830       0x24 /usr/lib/gcc/arm-none-eabi/9.2.1/../../../arm-none-eabi/lib/thumb/v7-m/nofp/libc.a(lib_a-closer.o)
                0x0000000008007830                _close_r
 *fill*         0x0000000008007854        0x4 
 .text          0x0000000008007858     0x1008 /usr/lib/gcc/arm-none-eabi/9.2.1/../../../arm-none-eabi/lib/thumb/v7-m/nofp/libc.a(lib_a-dtoa.o)
                0x0000000008007984                _dtoa_r
 .text          0x0000000008008860       0x98 /usr/lib/gcc/arm-none-eabi/9.2.1/../../../arm-none-eabi/lib/thumb/v7-m/nofp/libc.a(lib_a-fclose.o)
                0x0000000008008860                _fclose_r
                0x00000000080088e8                fclose
 .text          0x00000000080088f8       0x14 /usr/lib/gcc/arm-none-eabi/9.2.1/../../../arm-none-eabi/lib/thumb/v7-m/nofp/libc.a(lib_a-localeconv.o)
                0x00000000080088f8                __localeconv_l
                0x00000000080088fc                _localeconv_r
                0x0000000008008904                localeconv
 .text          0x000000000800890c       0x2c /usr/lib/gcc/arm-none-eabi/9.2.1/../../../arm-none-eabi/lib/thumb/v7-m/nofp/libc.a(lib_a-lseekr.o)
                0x000000000800890c                _lseek_r
 .text          0x0000000008008938       0xf0 /usr/lib/gcc/arm-none-eabi/9.2.1/../../../arm-none-eabi/lib/thumb/v7-m/nofp/libc.a(lib_a-makebuf.o)
                0x0000000008008938                __swhatbuf_r
                0x0000000008008994                __smakebuf_r
 .text          0x0000000008008a28      0x97c /usr/lib/gcc/arm-none-eabi/9.2.1/../../../arm-none-eabi/lib/thumb/v7-m/nofp/libc.a(lib_a-mprec.o)
                0x0000000008008a28                _Balloc
                0x0000000008008a74                _Bfree
                0x0000000008008a88                __multadd
                0x0000000008008b30                __s2b
                0x0000000008008bdc                __hi0bits
                0x0000000008008c1c                __lo0bits
                0x0000000008008c7c                __i2b
                0x0000000008008ca8                __multiply
                0x0000000008008df4                __pow5mult
                0x0000000008008e8c                __lshift
                0x0000000008008f58                __mcmp
                0x0000000008008f90                __mdiff
                0x00000000080090b8                __ulp
                0x00000000080090f8                __b2d
                0x00000000080091b4                __d2b
                0x0000000008009278                __ratio
                0x00000000080092d0                _mprec_log10
                0x0000000008009308                __copybits
                0x0000000008009350                __any_on
 .text          0x00000000080093a4       0x2c /usr/lib/gcc/arm-none-eabi/9.2.1/../../../arm-none-eabi/lib/thumb/v7-m/nofp/libc.a(lib_a-readr.o)
                0x00000000080093a4                _read_r
 .text          0x00000000080093d0      0xcf4 /usr/lib/gcc/arm-none-eabi/9.2.1/../../../arm-none-eabi/lib/thumb/v7-m/nofp/libc.a(lib_a-vfiprintf.o)
                0x0000000008009448                __sprint_r
                0x0000000008009458                _vfiprintf_r
                0x000000000800a040                vfiprintf
 .text          0x000000000800a0c4       0x48 /usr/lib/gcc/arm-none-eabi/9.2.1/../../../arm-none-eabi/lib/thumb/v7-m/nofp/libc.a(lib_a-assert.o)
                0x000000000800a0c4                __assert_func
                0x000000000800a100                __assert
 .text          0x000000000800a10c       0x60 /usr/lib/gcc/arm-none-eabi/9.2.1/../../../arm-none-eabi/lib/thumb/v7-m/nofp/libc.a(lib_a-callocr.o)
                0x000000000800a10c                _calloc_r
 .text          0x000000000800a16c       0x48 /usr/lib/gcc/arm-none-eabi/9.2.1/../../../arm-none-eabi/lib/thumb/v7-m/nofp/libc.a(lib_a-fiprintf.o)
                0x000000000800a16c                _fiprintf_r
                0x000000000800a18c                fiprintf
 .text          0x000000000800a1b4      0x104 /usr/lib/gcc/arm-none-eabi/9.2.1/../../../arm-none-eabi/lib/thumb/v7-m/nofp/libc.a(lib_a-fputwc.o)
                0x000000000800a1b4                __fputwc
                0x000000000800a254                _fputwc_r
                0x000000000800a278                fputwc
 .text          0x000000000800a2b8       0x28 /usr/lib/gcc/arm-none-eabi/9.2.1/../../../arm-none-eabi/lib/thumb/v7-m/nofp/libc.a(lib_a-fstatr.o)
                0x000000000800a2b8                _fstat_r
 .text          0x000000000800a2e0       0x24 /usr/lib/gcc/arm-none-eabi/9.2.1/../../../arm-none-eabi/lib/thumb/v7-m/nofp/libc.a(lib_a-isattyr.o)
                0x000000000800a2e0                _isatty_r
 .text          0x000000000800a304       0x5c /usr/lib/gcc/arm-none-eabi/9.2.1/../../../arm-none-eabi/lib/thumb/v7-m/nofp/libc.a(lib_a-locale.o)
                0x000000000800a304                _setlocale_r
                0x000000000800a344                __locale_mb_cur_max
                0x000000000800a350                setlocale
 .text          0x000000000800a360       0x40 /usr/lib/gcc/arm-none-eabi/9.2.1/../../../arm-none-eabi/lib/thumb/v7-m/nofp/libc.a(lib_a-mbtowc_r.o)
                0x000000000800a360                _mbtowc_r
                0x000000000800a374                __ascii_mbtowc
 .text          0x000000000800a3a0       0x7c /usr/lib/gcc/arm-none-eabi/9.2.1/../../../arm-none-eabi/lib/thumb/v7-m/nofp/libc.a(lib_a-wcrtomb.o)
                0x000000000800a3a0                _wcrtomb_r
                0x000000000800a3d4                wcrtomb
 .text          0x000000000800a41c       0x30 /usr/lib/gcc/arm-none-eabi/9.2.1/../../../arm-none-eabi/lib/thumb/v7-m/nofp/libc.a(lib_a-wctomb_r.o)
                0x000000000800a41c                _wctomb_r
                0x000000000800a430                __ascii_wctomb
 .text          0x000000000800a44c      0x378 /usr/lib/gcc/arm-none-eabi/9.2.1/thumb/v7-m/nofp/libgcc.a(_arm_addsubdf3.o)
                0x000000000800a44c                __aeabi_drsub
                0x000000000800a454                __aeabi_dsub
                0x000000000800a454                __subdf3
                0x000000000800a458                __adddf3
                0x000000000800a458                __aeabi_dadd
                0x000000000800a6d0                __aeabi_ui2d
                0x000000000800a6d0                __floatunsidf
                0x000000000800a6f0                __floatsidf
                0x000000000800a6f0                __aeabi_i2d
                0x000000000800a714                __extendsfdf2
                0x000000000800a714                __aeabi_f2d
                0x000000000800a758                __aeabi_ul2d
                0x000000000800a758                __floatundidf
                0x000000000800a768                __floatdidf
                0x000000000800a768                __aeabi_l2d
 .text          0x000000000800a7c4      0x424 /usr/lib/gcc/arm-none-eabi/9.2.1/thumb/v7-m/nofp/libgcc.a(_arm_muldivdf3.o)
                0x000000000800a7c4                __aeabi_dmul
                0x000000000800a7c4                __muldf3
                0x000000000800aa18                __aeabi_ddiv
                0x000000000800aa18                __divdf3
 .text          0x000000000800abe8      0x110 /usr/lib/gcc/arm-none-eabi/9.2.1/thumb/v7-m/nofp/libgcc.a(_arm_cmpdf2.o)
                0x000000000800abe8                __gtdf2
                0x000000000800abe8                __gedf2
                0x000000000800abf0                __ltdf2
                0x000000000800abf0                __ledf2
                0x000000000800abf8                __cmpdf2
                0x000000000800abf8                __eqdf2
                0x000000000800abf8                __nedf2
                0x000000000800ac74                __aeabi_cdrcmple
                0x000000000800ac84                __aeabi_cdcmple
                0x000000000800ac84                __aeabi_cdcmpeq
                0x000000000800ac94                __aeabi_dcmpeq
                0x000000000800aca8                __aeabi_dcmplt
                0x000000000800acbc                __aeabi_dcmple
                0x000000000800acd0                __aeabi_dcmpge
                0x000000000800ace4                __aeabi_dcmpgt
 .text          0x000000000800acf8       0x2c /usr/lib/gcc/arm-none-eabi/9.2.1/thumb/v7-m/nofp/libgcc.a(_arm_unorddf2.o)
                0x000000000800acf8                __aeabi_dcmpun
                0x000000000800acf8                __unorddf2
 .text          0x000000000800ad24       0x50 /usr/lib/gcc/arm-none-eabi/9.2.1/thumb/v7-m/nofp/libgcc.a(_arm_fixdfsi.o)
                0x000000000800ad24                __fixdfsi
                0x000000000800ad24                __aeabi_d2iz
 .text          0x000000000800ad74       0x30 /usr/lib/gcc/arm-none-eabi/9.2.1/thumb/v7-m/nofp/libgcc.a(_aeabi_uldivmod.o)
                0x000000000800ad74                __aeabi_uldivmod
 .text          0x000000000800ada4      0x2c4 /usr/lib/gcc/arm-none-eabi/9.2.1/thumb/v7-m/nofp/libgcc.a(_udivmoddi4.o)
                0x000000000800ada4                __udivmoddi4
 .text          0x000000000800b068        0x4 /usr/lib/gcc/arm-none-eabi/9.2.1/thumb/v7-m/nofp/libgcc.a(_dvmd_tls.o)
                0x000000000800b068                __aeabi_ldiv0
                0x000000000800b068                __aeabi_idiv0
 .text          0x000000000800b06c       0x10 /usr/lib/gcc/arm-none-eabi/9.2.1/../../../arm-none-eabi/lib/thumb/v7-m/nofp/libnosys.a(close.o)
                0x000000000800b06c                _close
 .text          0x000000000800b07c       0x10 /usr/lib/gcc/arm-none-eabi/9.2.1/../../../arm-none-eabi/lib/thumb/v7-m/nofp/libnosys.a(fstat.o)
                0x000000000800b07c                _fstat
 .text          0x000000000800b08c       0x10 /usr/lib/gcc/arm-none-eabi/9.2.1/../../../arm-none-eabi/lib/thumb/v7-m/nofp/libnosys.a(getpid.o)
                0x000000000800b08c                _getpid
 .text          0x000000000800b09c       0x10 /usr/lib/gcc/arm-none-eabi/9.2.1/../../../arm-none-eabi/lib/thumb/v7-m/nofp/libnosys.a(isatty.o)
                0x000000000800b09c                _isatty
 .text          0x000000000800b0ac       0x10 /usr/lib/gcc/arm-none-eabi/9.2.1/../../../arm-none-eabi/lib/thumb/v7-m/nofp/libnosys.a(kill.o)
                0x000000000800b0ac                _kill
 .text          0x000000000800b0bc       0x10 /usr/lib/gcc/arm-none-eabi/9.2.1/../../../arm-none-eabi/lib/thumb/v7-m/nofp/libnosys.a(lseek.o)
                0x000000000800b0bc                _lseek
 .text          0x000000000800b0cc       0x10 /usr/lib/gcc/arm-none-eabi/9.2.1/../../../arm-none-eabi/lib/thumb/v7-m/nofp/libnosys.a(read.o)
                0x000000000800b0cc                _read
 .text          0x000000000800b0dc       0x1c /usr/lib/gcc/arm-none-eabi/9.2.1/../../../arm-none-eabi/lib/thumb/v7-m/nofp/libnosys.a(sbrk.o)
                0x000000000800b0dc                _sbrk
 .text          0x000000000800b0f8        0x4 /usr/lib/gcc/arm-none-eabi/9.2.1/../../../arm-none-eabi/lib/thumb/v7-m/nofp/libnosys.a(_exit.o)
                0x000000000800b0f8                _exit
                0x000000000800b0fc                . = ALIGN (0x4)
 *(.rodata*)
 .rodata.console_echo.str1.1
                0x000000000800b0fc        0x4 console.o
 .rodata.console_unknown.str1.1
                0x000000000800b100       0x15 console.o
 .rodata.console_help.str1.1
                0x000000000800b115       0x1b console.o
 .rodata.console_init.str1.1
                0x000000000800b130        0x3 console.o
 .rodata.console_run.str1.1
                0x000000000800b133       0x13 console.o
 .rodata.str1.1
                0x000000000800b146        0xa console.o
 .rodata.cmd_echo
                0x000000000800b150        0x8 console.o
 .rodata.cmd_help
                0x000000000800b158        0x8 console.o
 .rodata.cmd_unknown
                0x000000000800b160        0x8 console.o
 .rodata.i2c_ctx_is_timed_out.str1.1
                0x000000000800b168       0x1a i2c_ctx.o
 .rodata.str1.1
                0x000000000800b182       0xc2 i2c_ctx.o
 .rodata.i2c_sr1_desc
                0x000000000800b244       0x80 i2c_ctx.o
 .rodata.fregdump_single.str1.1
                0x000000000800b2c4       0x1d regdump.o
 .rodata.do_reboot.str1.1
                0x000000000800b2e1       0x11 i2c-stm32f1-usb.o
 .rodata.do_id.str1.1
                0x000000000800b2f2       0x11 i2c-stm32f1-usb.o
                                          0x4 (size before relaxing)
 .rodata.main.str1.1
                0x000000000800b2f2        0xa i2c-stm32f1-usb.o
 .rodata.str1.1
                0x000000000800b2fc       0x30 i2c-stm32f1-usb.o
 .rodata.cmds   0x000000000800b32c       0x10 i2c-stm32f1-usb.o
 .rodata.config
                0x000000000800b33c        0xd i2c-stm32f1-usb.o
 .rodata.dev    0x000000000800b349       0x12 i2c-stm32f1-usb.o
 .rodata.i2c_endpoint
                0x000000000800b35b        0xf i2c-stm32f1-usb.o
                0x000000000800b35b                i2c_endpoint
 .rodata.i2c_iface
                0x000000000800b36a       0x15 i2c-stm32f1-usb.o
                0x000000000800b36a                i2c_iface
 *fill*         0x000000000800b37f        0x1 
 .rodata.ifaces
                0x000000000800b380       0x10 i2c-stm32f1-usb.o
                0x000000000800b380                ifaces
 .rodata.desig_get_unique_id_as_string.str1.1
                0x000000000800b390       0x11 /home/maddocks/src/i2c-star-stm32f411ceu6-blackpill/libopencm3/lib/libopencm3_stm32f1.a(desig.o)
 *fill*         0x000000000800b3a1        0x3 
 .rodata.st_usbfs_v1_usb_driver
                0x000000000800b3a4       0x34 /home/maddocks/src/i2c-star-stm32f411ceu6-blackpill/libopencm3/lib/libopencm3_stm32f1.a(st_usbfs_v1.o)
                0x000000000800b3a4                st_usbfs_v1_usb_driver
 .rodata        0x000000000800b3d8      0x101 /usr/lib/gcc/arm-none-eabi/9.2.1/../../../arm-none-eabi/lib/thumb/v7-m/nofp/libc.a(lib_a-ctype_.o)
                0x000000000800b3d8                _ctype_
 *fill*         0x000000000800b4d9        0x3 
 .rodata        0x000000000800b4dc        0x4 /usr/lib/gcc/arm-none-eabi/9.2.1/../../../arm-none-eabi/lib/thumb/v7-m/nofp/libc.a(lib_a-impure.o)
                0x000000000800b4dc                _global_impure_ptr
 .rodata.str1.4
                0x000000000800b4e0        0x2 /usr/lib/gcc/arm-none-eabi/9.2.1/../../../arm-none-eabi/lib/thumb/v7-m/nofp/libc.a(lib_a-puts.o)
 *fill*         0x000000000800b4e2        0x2 
 .rodata        0x000000000800b4e4       0x20 /usr/lib/gcc/arm-none-eabi/9.2.1/../../../arm-none-eabi/lib/thumb/v7-m/nofp/libc.a(lib_a-vfprintf.o)
 .rodata.str1.4
                0x000000000800b504       0x42 /usr/lib/gcc/arm-none-eabi/9.2.1/../../../arm-none-eabi/lib/thumb/v7-m/nofp/libc.a(lib_a-vfprintf.o)
 *fill*         0x000000000800b546        0x2 
 .rodata.str1.4
                0x000000000800b548       0x56 /usr/lib/gcc/arm-none-eabi/9.2.1/../../../arm-none-eabi/lib/thumb/v7-m/nofp/libc.a(lib_a-dtoa.o)
                                         0x5a (size before relaxing)
 *fill*         0x000000000800b59e        0x2 
 .rodata        0x000000000800b5a0      0x128 /usr/lib/gcc/arm-none-eabi/9.2.1/../../../arm-none-eabi/lib/thumb/v7-m/nofp/libc.a(lib_a-mprec.o)
                0x000000000800b5b0                __mprec_tens
                0x000000000800b678                __mprec_tinytens
                0x000000000800b6a0                __mprec_bigtens
 .rodata.str1.4
                0x000000000800b6c8       0x33 /usr/lib/gcc/arm-none-eabi/9.2.1/../../../arm-none-eabi/lib/thumb/v7-m/nofp/libc.a(lib_a-mprec.o)
                                         0x47 (size before relaxing)
 *fill*         0x000000000800b6fb        0x1 
 .rodata        0x000000000800b6fc       0x20 /usr/lib/gcc/arm-none-eabi/9.2.1/../../../arm-none-eabi/lib/thumb/v7-m/nofp/libc.a(lib_a-vfiprintf.o)
 .rodata.str1.4
                0x000000000800b71c       0x2f /usr/lib/gcc/arm-none-eabi/9.2.1/../../../arm-none-eabi/lib/thumb/v7-m/nofp/libc.a(lib_a-vfiprintf.o)
 .rodata.str1.4
                0x000000000800b71c       0x3f /usr/lib/gcc/arm-none-eabi/9.2.1/../../../arm-none-eabi/lib/thumb/v7-m/nofp/libc.a(lib_a-assert.o)
                                         0x43 (size before relaxing)
 *fill*         0x000000000800b75b        0x1 
 .rodata.str1.4
                0x000000000800b75c        0xe /usr/lib/gcc/arm-none-eabi/9.2.1/../../../arm-none-eabi/lib/thumb/v7-m/nofp/libc.a(lib_a-locale.o)
                                         0x12 (size before relaxing)
                0x000000000800b76c                . = ALIGN (0x4)
 *fill*         0x000000000800b76a        0x2 

.glue_7         0x000000000800b76c        0x0
 .glue_7        0x000000000800b76c        0x0 linker stubs

.glue_7t        0x000000000800b76c        0x0
 .glue_7t       0x000000000800b76c        0x0 linker stubs

.vfp11_veneer   0x000000000800b76c        0x0
 .vfp11_veneer  0x000000000800b76c        0x0 linker stubs

.v4_bx          0x000000000800b76c        0x0
 .v4_bx         0x000000000800b76c        0x0 linker stubs

.iplt           0x000000000800b76c        0x0
 .iplt          0x000000000800b76c        0x0 console.o

.preinit_array  0x000000000800b76c        0x0
                0x000000000800b76c                . = ALIGN (0x4)
                0x000000000800b76c                __preinit_array_start = .
 *(.preinit_array)
                0x000000000800b76c                __preinit_array_end = .

.init_array     0x000000000800b76c        0x0
                0x000000000800b76c                . = ALIGN (0x4)
                0x000000000800b76c                __init_array_start = .
 *(SORT_BY_NAME(.init_array.*))
 *(.init_array)
                0x000000000800b76c                __init_array_end = .

.fini_array     0x000000000800b76c        0x0
                0x000000000800b76c                . = ALIGN (0x4)
                0x000000000800b76c                __fini_array_start = .
 *(.fini_array)
 *(SORT_BY_NAME(.fini_array.*))
                0x000000000800b76c                __fini_array_end = .

.ARM.extab
 *(.ARM.extab*)

.ARM.exidx      0x000000000800b76c        0x8
                0x000000000800b76c                __exidx_start = .
 *(.ARM.exidx*)
 .ARM.exidx     0x000000000800b76c        0x8 /usr/lib/gcc/arm-none-eabi/9.2.1/thumb/v7-m/nofp/libgcc.a(_udivmoddi4.o)
                0x000000000800b774                __exidx_end = .

.rel.dyn        0x000000000800b774        0x0
 .rel.iplt      0x000000000800b774        0x0 console.o
                0x000000000800b774                . = ALIGN (0x4)
                0x000000000800b774                _etext = .

.data           0x0000000020000000      0xa94 load address 0x000000000800b774
                0x0000000020000000                _data = .
 *(.data*)
 .data.cmd_table
                0x0000000020000000       0x80 console.o
 .data.outring  0x0000000020000080       0x10 console_stm32.o
 .data.kernel   0x0000000020000090       0x34 fibre.o
 .data.usb_strings
                0x00000000200000c4        0x8 i2c-stm32f1-usb.o
 .data.usb_task
                0x00000000200000cc       0x10 i2c-stm32f1-usb.o
 .data.rcc_ahb_frequency
                0x00000000200000dc        0x4 /home/maddocks/src/i2c-star-stm32f411ceu6-blackpill/libopencm3/lib/libopencm3_stm32f1.a(rcc.o)
                0x00000000200000dc                rcc_ahb_frequency
 .data.rcc_apb1_frequency
                0x00000000200000e0        0x4 /home/maddocks/src/i2c-star-stm32f411ceu6-blackpill/libopencm3/lib/libopencm3_stm32f1.a(rcc.o)
                0x00000000200000e0                rcc_apb1_frequency
 .data.rcc_apb2_frequency
                0x00000000200000e4        0x4 /home/maddocks/src/i2c-star-stm32f411ceu6-blackpill/libopencm3/lib/libopencm3_stm32f1.a(rcc.o)
                0x00000000200000e4                rcc_apb2_frequency
 .data          0x00000000200000e8      0x430 /usr/lib/gcc/arm-none-eabi/9.2.1/../../../arm-none-eabi/lib/thumb/v7-m/nofp/libc.a(lib_a-impure.o)
                0x00000000200000e8                _impure_ptr
 .data          0x0000000020000518      0x410 /usr/lib/gcc/arm-none-eabi/9.2.1/../../../arm-none-eabi/lib/thumb/v7-m/nofp/libc.a(lib_a-mallocr.o)
                0x0000000020000518                __malloc_av_
                0x0000000020000920                __malloc_sbrk_base
                0x0000000020000924                __malloc_trim_threshold
 .data          0x0000000020000928      0x16c /usr/lib/gcc/arm-none-eabi/9.2.1/../../../arm-none-eabi/lib/thumb/v7-m/nofp/libc.a(lib_a-locale.o)
                0x0000000020000928                __global_locale
                0x0000000020000a94                . = ALIGN (0x4)
                0x0000000020000a94                _edata = .
                0x000000000800b774                _data_loadaddr = LOADADDR (.data)

.igot.plt       0x0000000020000a94        0x0 load address 0x000000000800c208
 .igot.plt      0x0000000020000a94        0x0 console.o

.bss            0x0000000020000a98      0x6ec load address 0x000000000800c208
 *(.bss*)
 .bss.cmd.6242  0x0000000020000a98        0x4 console.o
 .bss.locked.6240
                0x0000000020000a9c        0x1 console.o
 *fill*         0x0000000020000a9d        0x3 
 .bss.console   0x0000000020000aa0        0x4 console_stm32.o
 .bss.outbuf    0x0000000020000aa4      0x400 console_stm32.o
 .bss.atomic_runq_buf
                0x0000000020000ea4       0x20 fibre.o
 *fill*         0x0000000020000ec4        0x4 
 .bss.sys_tick_counter
                0x0000000020000ec8        0x8 time_libopencm3.o
 .bss.reply_buf.6994
                0x0000000020000ed0       0x40 i2c-stm32f1-usb.o
 .bss.status    0x0000000020000f10        0x1 i2c-stm32f1-usb.o
 *fill*         0x0000000020000f11        0x3 
 .bss.t.7013    0x0000000020000f14        0x4 i2c-stm32f1-usb.o
 .bss.uart_console
                0x0000000020000f18       0xa8 i2c-stm32f1-usb.o
 .bss.usbd_control_buffer
                0x0000000020000fc0       0x80 i2c-stm32f1-usb.o
                0x0000000020000fc0                usbd_control_buffer
 .bss.usbd_dev  0x0000000020001040        0x4 i2c-stm32f1-usb.o
 .bss.st_usbfs_dev
                0x0000000020001044       0xfc /home/maddocks/src/i2c-star-stm32f411ceu6-blackpill/libopencm3/lib/libopencm3_stm32f1.a(st_usbfs_core.o)
                0x0000000020001044                st_usbfs_dev
 .bss.st_usbfs_force_nak
                0x0000000020001140        0x8 /home/maddocks/src/i2c-star-stm32f411ceu6-blackpill/libopencm3/lib/libopencm3_stm32f1.a(st_usbfs_core.o)
                0x0000000020001140                st_usbfs_force_nak
 .bss           0x0000000020001148       0x34 /usr/lib/gcc/arm-none-eabi/9.2.1/../../../arm-none-eabi/lib/thumb/v7-m/nofp/libc.a(lib_a-mallocr.o)
                0x0000000020001148                __malloc_top_pad
                0x000000002000114c                __malloc_current_mallinfo
                0x0000000020001174                __malloc_max_sbrked_mem
                0x0000000020001178                __malloc_max_total_mem
 .bss           0x000000002000117c        0x4 /usr/lib/gcc/arm-none-eabi/9.2.1/../../../arm-none-eabi/lib/thumb/v7-m/nofp/libnosys.a(sbrk.o)
 *(COMMON)
 COMMON         0x0000000020001180        0x4 /usr/lib/gcc/arm-none-eabi/9.2.1/../../../arm-none-eabi/lib/thumb/v7-m/nofp/libc.a(lib_a-reent.o)
                0x0000000020001180                errno
                0x0000000020001184                . = ALIGN (0x4)
                0x0000000020001184                _ebss = .

/DISCARD/
 *(.eh_frame)
                0x0000000020001184                . = ALIGN (0x4)
                0x0000000020001184                end = .
                0x0000000020005000                PROVIDE (_stack = (ORIGIN (ram) + LENGTH (ram)))
OUTPUT(i2c-stm32f1-usb.elf elf32-littlearm)
LOAD linker stubs

.debug_info     0x0000000000000000    0x46fe8
 .debug_info    0x0000000000000000     0x1584 console.o
 .debug_info    0x0000000000001584     0x1265 console_stm32.o
 .debug_info    0x00000000000027e9     0x1817 i2c_ctx.o
 .debug_info    0x0000000000004000      0x235 bitops.o
 .debug_info    0x0000000000004235     0x1529 fibre.o
 .debug_info    0x000000000000575e       0xd0 fibre_default.o
 .debug_info    0x000000000000582e      0xdf4 list.o
 .debug_info    0x0000000000006622      0xc35 messageq.o
 .debug_info    0x0000000000007257      0xbb1 regdump.o
 .debug_info    0x0000000000007e08      0xcc5 ringbuf.o
 .debug_info    0x0000000000008acd      0x155 time_libopencm3.o
 .debug_info    0x0000000000008c22      0xb15 util.o
 .debug_info    0x0000000000009737     0x1d83 i2c-stm32f1-usb.o
 .debug_info    0x000000000000b4ba      0x24f /home/maddocks/src/i2c-star-stm32f411ceu6-blackpill/libopencm3/lib/libopencm3_stm32f1.a(desig.o)
 .debug_info    0x000000000000b709      0x1e6 /home/maddocks/src/i2c-star-stm32f411ceu6-blackpill/libopencm3/lib/libopencm3_stm32f1.a(gpio.o)
 .debug_info    0x000000000000b8ef      0x24e /home/maddocks/src/i2c-star-stm32f411ceu6-blackpill/libopencm3/lib/libopencm3_stm32f1.a(gpio_common_all.o)
 .debug_info    0x000000000000bb3d      0xc12 /home/maddocks/src/i2c-star-stm32f411ceu6-blackpill/libopencm3/lib/libopencm3_stm32f1.a(i2c_common_v1.o)
 .debug_info    0x000000000000c74f     0x1283 /home/maddocks/src/i2c-star-stm32f411ceu6-blackpill/libopencm3/lib/libopencm3_stm32f1.a(rcc.o)
 .debug_info    0x000000000000d9d2      0x5f7 /home/maddocks/src/i2c-star-stm32f411ceu6-blackpill/libopencm3/lib/libopencm3_stm32f1.a(rcc_common_all.o)
 .debug_info    0x000000000000dfc9      0x503 /home/maddocks/src/i2c-star-stm32f411ceu6-blackpill/libopencm3/lib/libopencm3_stm32f1.a(usart_common_all.o)
 .debug_info    0x000000000000e4cc      0x1ad /home/maddocks/src/i2c-star-stm32f411ceu6-blackpill/libopencm3/lib/libopencm3_stm32f1.a(usart_common_f124.o)
 .debug_info    0x000000000000e679     0x17cd /home/maddocks/src/i2c-star-stm32f411ceu6-blackpill/libopencm3/lib/libopencm3_stm32f1.a(usb.o)
 .debug_info    0x000000000000fe46     0x1902 /home/maddocks/src/i2c-star-stm32f411ceu6-blackpill/libopencm3/lib/libopencm3_stm32f1.a(usb_control.o)
 .debug_info    0x0000000000011748     0x1f96 /home/maddocks/src/i2c-star-stm32f411ceu6-blackpill/libopencm3/lib/libopencm3_stm32f1.a(usb_standard.o)
 .debug_info    0x00000000000136de      0xd83 /home/maddocks/src/i2c-star-stm32f411ceu6-blackpill/libopencm3/lib/libopencm3_stm32f1.a(st_usbfs_v1.o)
 .debug_info    0x0000000000014461      0x2d1 /home/maddocks/src/i2c-star-stm32f411ceu6-blackpill/libopencm3/lib/libopencm3_stm32f1.a(vector.o)
 .debug_info    0x0000000000014732      0x268 /home/maddocks/src/i2c-star-stm32f411ceu6-blackpill/libopencm3/lib/libopencm3_stm32f1.a(systick.o)
 .debug_info    0x000000000001499a      0x962 /home/maddocks/src/i2c-star-stm32f411ceu6-blackpill/libopencm3/lib/libopencm3_stm32f1.a(scb.o)
 .debug_info    0x00000000000152fc      0x22d /home/maddocks/src/i2c-star-stm32f411ceu6-blackpill/libopencm3/lib/libopencm3_stm32f1.a(nvic.o)
 .debug_info    0x0000000000015529       0xea /home/maddocks/src/i2c-star-stm32f411ceu6-blackpill/libopencm3/lib/libopencm3_stm32f1.a(flash_common_all.o)
 .debug_info    0x0000000000015613     0x1073 /home/maddocks/src/i2c-star-stm32f411ceu6-blackpill/libopencm3/lib/libopencm3_stm32f1.a(st_usbfs_core.o)
 .debug_info    0x0000000000016686      0x9b5 /usr/lib/gcc/arm-none-eabi/9.2.1/../../../arm-none-eabi/lib/thumb/v7-m/nofp/libc.a(lib_a-abort.o)
 .debug_info    0x000000000001703b      0xe91 /usr/lib/gcc/arm-none-eabi/9.2.1/../../../arm-none-eabi/lib/thumb/v7-m/nofp/libc.a(lib_a-ctype_.o)
 .debug_info    0x0000000000017ecc      0x953 /usr/lib/gcc/arm-none-eabi/9.2.1/../../../arm-none-eabi/lib/thumb/v7-m/nofp/libc.a(lib_a-errno.o)
 .debug_info    0x000000000001881f      0xd73 /usr/lib/gcc/arm-none-eabi/9.2.1/../../../arm-none-eabi/lib/thumb/v7-m/nofp/libc.a(lib_a-fflush.o)
 .debug_info    0x0000000000019592     0x1143 /usr/lib/gcc/arm-none-eabi/9.2.1/../../../arm-none-eabi/lib/thumb/v7-m/nofp/libc.a(lib_a-findfp.o)
 .debug_info    0x000000000001a6d5      0xa7a /usr/lib/gcc/arm-none-eabi/9.2.1/../../../arm-none-eabi/lib/thumb/v7-m/nofp/libc.a(lib_a-fprintf.o)
 .debug_info    0x000000000001b14f      0xca9 /usr/lib/gcc/arm-none-eabi/9.2.1/../../../arm-none-eabi/lib/thumb/v7-m/nofp/libc.a(lib_a-fputc.o)
 .debug_info    0x000000000001bdf8      0xcf0 /usr/lib/gcc/arm-none-eabi/9.2.1/../../../arm-none-eabi/lib/thumb/v7-m/nofp/libc.a(lib_a-fputs.o)
 .debug_info    0x000000000001cae8      0xdc4 /usr/lib/gcc/arm-none-eabi/9.2.1/../../../arm-none-eabi/lib/thumb/v7-m/nofp/libc.a(lib_a-freer.o)
 .debug_info    0x000000000001d8ac      0xf1c /usr/lib/gcc/arm-none-eabi/9.2.1/../../../arm-none-eabi/lib/thumb/v7-m/nofp/libc.a(lib_a-fvwrite.o)
 .debug_info    0x000000000001e7c8      0xca4 /usr/lib/gcc/arm-none-eabi/9.2.1/../../../arm-none-eabi/lib/thumb/v7-m/nofp/libc.a(lib_a-fwalk.o)
 .debug_info    0x000000000001f46c      0x92a /usr/lib/gcc/arm-none-eabi/9.2.1/../../../arm-none-eabi/lib/thumb/v7-m/nofp/libc.a(lib_a-impure.o)
 .debug_info    0x000000000001fd96      0xf2e /usr/lib/gcc/arm-none-eabi/9.2.1/../../../arm-none-eabi/lib/thumb/v7-m/nofp/libc.a(lib_a-mallocr.o)
 .debug_info    0x0000000000020cc4      0x9e3 /usr/lib/gcc/arm-none-eabi/9.2.1/../../../arm-none-eabi/lib/thumb/v7-m/nofp/libc.a(lib_a-memchr-stub.o)
 .debug_info    0x00000000000216a7       0x26 /usr/lib/gcc/arm-none-eabi/9.2.1/../../../arm-none-eabi/lib/thumb/v7-m/nofp/libc.a(lib_a-memcpy.o)
 .debug_info    0x00000000000216cd      0xf2b /usr/lib/gcc/arm-none-eabi/9.2.1/../../../arm-none-eabi/lib/thumb/v7-m/nofp/libc.a(lib_a-memmove.o)
 .debug_info    0x00000000000225f8      0xf21 /usr/lib/gcc/arm-none-eabi/9.2.1/../../../arm-none-eabi/lib/thumb/v7-m/nofp/libc.a(lib_a-memset.o)
 .debug_info    0x0000000000023519      0x961 /usr/lib/gcc/arm-none-eabi/9.2.1/../../../arm-none-eabi/lib/thumb/v7-m/nofp/libc.a(lib_a-mlock.o)
 .debug_info    0x0000000000023e7a      0xd10 /usr/lib/gcc/arm-none-eabi/9.2.1/../../../arm-none-eabi/lib/thumb/v7-m/nofp/libc.a(lib_a-putc.o)
 .debug_info    0x0000000000024b8a      0xce5 /usr/lib/gcc/arm-none-eabi/9.2.1/../../../arm-none-eabi/lib/thumb/v7-m/nofp/libc.a(lib_a-puts.o)
 .debug_info    0x000000000002586f      0xf09 /usr/lib/gcc/arm-none-eabi/9.2.1/../../../arm-none-eabi/lib/thumb/v7-m/nofp/libc.a(lib_a-reallocr.o)
 .debug_info    0x0000000000026778      0x9fb /usr/lib/gcc/arm-none-eabi/9.2.1/../../../arm-none-eabi/lib/thumb/v7-m/nofp/libc.a(lib_a-sbrkr.o)
 .debug_info    0x0000000000027173      0xd5c /usr/lib/gcc/arm-none-eabi/9.2.1/../../../arm-none-eabi/lib/thumb/v7-m/nofp/libc.a(lib_a-signal.o)
 .debug_info    0x0000000000027ecf      0xa43 /usr/lib/gcc/arm-none-eabi/9.2.1/../../../arm-none-eabi/lib/thumb/v7-m/nofp/libc.a(lib_a-signalr.o)
 .debug_info    0x0000000000028912      0xe67 /usr/lib/gcc/arm-none-eabi/9.2.1/../../../arm-none-eabi/lib/thumb/v7-m/nofp/libc.a(lib_a-stdio.o)
 .debug_info    0x0000000000029779       0x26 /usr/lib/gcc/arm-none-eabi/9.2.1/../../../arm-none-eabi/lib/thumb/v7-m/nofp/libc.a(lib_a-strcmp.o)
 .debug_info    0x000000000002979f      0x941 /usr/lib/gcc/arm-none-eabi/9.2.1/../../../arm-none-eabi/lib/thumb/v7-m/nofp/libc.a(lib_a-strlen-stub.o)
 .debug_info    0x000000000002a0e0     0x20ba /usr/lib/gcc/arm-none-eabi/9.2.1/../../../arm-none-eabi/lib/thumb/v7-m/nofp/libc.a(lib_a-vfprintf.o)
 .debug_info    0x000000000002c19a      0xc90 /usr/lib/gcc/arm-none-eabi/9.2.1/../../../arm-none-eabi/lib/thumb/v7-m/nofp/libc.a(lib_a-wbuf.o)
 .debug_info    0x000000000002ce2a      0xa2c /usr/lib/gcc/arm-none-eabi/9.2.1/../../../arm-none-eabi/lib/thumb/v7-m/nofp/libc.a(lib_a-writer.o)
 .debug_info    0x000000000002d856      0xbf3 /usr/lib/gcc/arm-none-eabi/9.2.1/../../../arm-none-eabi/lib/thumb/v7-m/nofp/libc.a(lib_a-wsetup.o)
 .debug_info    0x000000000002e449      0x9d8 /usr/lib/gcc/arm-none-eabi/9.2.1/../../../arm-none-eabi/lib/thumb/v7-m/nofp/libc.a(lib_a-closer.o)
 .debug_info    0x000000000002ee21     0x1ab7 /usr/lib/gcc/arm-none-eabi/9.2.1/../../../arm-none-eabi/lib/thumb/v7-m/nofp/libc.a(lib_a-dtoa.o)
 .debug_info    0x00000000000308d8      0xcd5 /usr/lib/gcc/arm-none-eabi/9.2.1/../../../arm-none-eabi/lib/thumb/v7-m/nofp/libc.a(lib_a-fclose.o)
 .debug_info    0x00000000000315ad      0xf49 /usr/lib/gcc/arm-none-eabi/9.2.1/../../../arm-none-eabi/lib/thumb/v7-m/nofp/libc.a(lib_a-localeconv.o)
 .debug_info    0x00000000000324f6      0xa0d /usr/lib/gcc/arm-none-eabi/9.2.1/../../../arm-none-eabi/lib/thumb/v7-m/nofp/libc.a(lib_a-lseekr.o)
 .debug_info    0x0000000000032f03      0xf69 /usr/lib/gcc/arm-none-eabi/9.2.1/../../../arm-none-eabi/lib/thumb/v7-m/nofp/libc.a(lib_a-makebuf.o)
 .debug_info    0x0000000000033e6c     0x2285 /usr/lib/gcc/arm-none-eabi/9.2.1/../../../arm-none-eabi/lib/thumb/v7-m/nofp/libc.a(lib_a-mprec.o)
 .debug_info    0x00000000000360f1      0xa25 /usr/lib/gcc/arm-none-eabi/9.2.1/../../../arm-none-eabi/lib/thumb/v7-m/nofp/libc.a(lib_a-readr.o)
 .debug_info    0x0000000000036b16      0xac5 /usr/lib/gcc/arm-none-eabi/9.2.1/../../../arm-none-eabi/lib/thumb/v7-m/nofp/libc.a(lib_a-reent.o)
 .debug_info    0x00000000000375db     0x1ece /usr/lib/gcc/arm-none-eabi/9.2.1/../../../arm-none-eabi/lib/thumb/v7-m/nofp/libc.a(lib_a-vfiprintf.o)
 .debug_info    0x00000000000394a9      0xa41 /usr/lib/gcc/arm-none-eabi/9.2.1/../../../arm-none-eabi/lib/thumb/v7-m/nofp/libc.a(lib_a-assert.o)
 .debug_info    0x0000000000039eea      0xc2f /usr/lib/gcc/arm-none-eabi/9.2.1/../../../arm-none-eabi/lib/thumb/v7-m/nofp/libc.a(lib_a-callocr.o)
 .debug_info    0x000000000003ab19      0xa71 /usr/lib/gcc/arm-none-eabi/9.2.1/../../../arm-none-eabi/lib/thumb/v7-m/nofp/libc.a(lib_a-fiprintf.o)
 .debug_info    0x000000000003b58a      0xe57 /usr/lib/gcc/arm-none-eabi/9.2.1/../../../arm-none-eabi/lib/thumb/v7-m/nofp/libc.a(lib_a-fputwc.o)
 .debug_info    0x000000000003c3e1      0xc23 /usr/lib/gcc/arm-none-eabi/9.2.1/../../../arm-none-eabi/lib/thumb/v7-m/nofp/libc.a(lib_a-fstatr.o)
 .debug_info    0x000000000003d004      0x9d8 /usr/lib/gcc/arm-none-eabi/9.2.1/../../../arm-none-eabi/lib/thumb/v7-m/nofp/libc.a(lib_a-isattyr.o)
 .debug_info    0x000000000003d9dc     0x10ca /usr/lib/gcc/arm-none-eabi/9.2.1/../../../arm-none-eabi/lib/thumb/v7-m/nofp/libc.a(lib_a-locale.o)
 .debug_info    0x000000000003eaa6     0x1044 /usr/lib/gcc/arm-none-eabi/9.2.1/../../../arm-none-eabi/lib/thumb/v7-m/nofp/libc.a(lib_a-mbtowc_r.o)
 .debug_info    0x000000000003faea     0x10b3 /usr/lib/gcc/arm-none-eabi/9.2.1/../../../arm-none-eabi/lib/thumb/v7-m/nofp/libc.a(lib_a-wcrtomb.o)
 .debug_info    0x0000000000040b9d     0x1003 /usr/lib/gcc/arm-none-eabi/9.2.1/../../../arm-none-eabi/lib/thumb/v7-m/nofp/libc.a(lib_a-wctomb_r.o)
 .debug_info    0x0000000000041ba0       0x26 /usr/lib/gcc/arm-none-eabi/9.2.1/thumb/v7-m/nofp/libgcc.a(_arm_addsubdf3.o)
 .debug_info    0x0000000000041bc6       0x26 /usr/lib/gcc/arm-none-eabi/9.2.1/thumb/v7-m/nofp/libgcc.a(_arm_muldivdf3.o)
 .debug_info    0x0000000000041bec       0x26 /usr/lib/gcc/arm-none-eabi/9.2.1/thumb/v7-m/nofp/libgcc.a(_arm_cmpdf2.o)
 .debug_info    0x0000000000041c12       0x26 /usr/lib/gcc/arm-none-eabi/9.2.1/thumb/v7-m/nofp/libgcc.a(_arm_unorddf2.o)
 .debug_info    0x0000000000041c38       0x26 /usr/lib/gcc/arm-none-eabi/9.2.1/thumb/v7-m/nofp/libgcc.a(_arm_fixdfsi.o)
 .debug_info    0x0000000000041c5e       0x26 /usr/lib/gcc/arm-none-eabi/9.2.1/thumb/v7-m/nofp/libgcc.a(_aeabi_uldivmod.o)
 .debug_info    0x0000000000041c84      0xd7c /usr/lib/gcc/arm-none-eabi/9.2.1/thumb/v7-m/nofp/libgcc.a(_udivmoddi4.o)
 .debug_info    0x0000000000042a00       0x26 /usr/lib/gcc/arm-none-eabi/9.2.1/thumb/v7-m/nofp/libgcc.a(_dvmd_tls.o)
 .debug_info    0x0000000000042a26      0x96e /usr/lib/gcc/arm-none-eabi/9.2.1/../../../arm-none-eabi/lib/thumb/v7-m/nofp/libnosys.a(close.o)
 .debug_info    0x0000000000043394      0xbb1 /usr/lib/gcc/arm-none-eabi/9.2.1/../../../arm-none-eabi/lib/thumb/v7-m/nofp/libnosys.a(fstat.o)
 .debug_info    0x0000000000043f45      0x959 /usr/lib/gcc/arm-none-eabi/9.2.1/../../../arm-none-eabi/lib/thumb/v7-m/nofp/libnosys.a(getpid.o)
 .debug_info    0x000000000004489e      0x96e /usr/lib/gcc/arm-none-eabi/9.2.1/../../../arm-none-eabi/lib/thumb/v7-m/nofp/libnosys.a(isatty.o)
 .debug_info    0x000000000004520c      0x97c /usr/lib/gcc/arm-none-eabi/9.2.1/../../../arm-none-eabi/lib/thumb/v7-m/nofp/libnosys.a(kill.o)
 .debug_info    0x0000000000045b88      0x990 /usr/lib/gcc/arm-none-eabi/9.2.1/../../../arm-none-eabi/lib/thumb/v7-m/nofp/libnosys.a(lseek.o)
 .debug_info    0x0000000000046518      0x990 /usr/lib/gcc/arm-none-eabi/9.2.1/../../../arm-none-eabi/lib/thumb/v7-m/nofp/libnosys.a(read.o)
 .debug_info    0x0000000000046ea8       0x9d /usr/lib/gcc/arm-none-eabi/9.2.1/../../../arm-none-eabi/lib/thumb/v7-m/nofp/libnosys.a(sbrk.o)
 .debug_info    0x0000000000046f45       0xa3 /usr/lib/gcc/arm-none-eabi/9.2.1/../../../arm-none-eabi/lib/thumb/v7-m/nofp/libnosys.a(_exit.o)

.debug_abbrev   0x0000000000000000     0xdc68
 .debug_abbrev  0x0000000000000000      0x4d3 console.o
 .debug_abbrev  0x00000000000004d3      0x334 console_stm32.o
 .debug_abbrev  0x0000000000000807      0x436 i2c_ctx.o
 .debug_abbrev  0x0000000000000c3d       0xde bitops.o
 .debug_abbrev  0x0000000000000d1b      0x402 fibre.o
 .debug_abbrev  0x000000000000111d       0x64 fibre_default.o
 .debug_abbrev  0x0000000000001181      0x2db list.o
 .debug_abbrev  0x000000000000145c      0x296 messageq.o
 .debug_abbrev  0x00000000000016f2      0x29e regdump.o
 .debug_abbrev  0x0000000000001990      0x2be ringbuf.o
 .debug_abbrev  0x0000000000001c4e       0xe1 time_libopencm3.o
 .debug_abbrev  0x0000000000001d2f      0x2a6 util.o
 .debug_abbrev  0x0000000000001fd5      0x4dd i2c-stm32f1-usb.o
 .debug_abbrev  0x00000000000024b2      0x10b /home/maddocks/src/i2c-star-stm32f411ceu6-blackpill/libopencm3/lib/libopencm3_stm32f1.a(desig.o)
 .debug_abbrev  0x00000000000025bd       0xd0 /home/maddocks/src/i2c-star-stm32f411ceu6-blackpill/libopencm3/lib/libopencm3_stm32f1.a(gpio.o)
 .debug_abbrev  0x000000000000268d      0x116 /home/maddocks/src/i2c-star-stm32f411ceu6-blackpill/libopencm3/lib/libopencm3_stm32f1.a(gpio_common_all.o)
 .debug_abbrev  0x00000000000027a3      0x317 /home/maddocks/src/i2c-star-stm32f411ceu6-blackpill/libopencm3/lib/libopencm3_stm32f1.a(i2c_common_v1.o)
 .debug_abbrev  0x0000000000002aba      0x2e1 /home/maddocks/src/i2c-star-stm32f411ceu6-blackpill/libopencm3/lib/libopencm3_stm32f1.a(rcc.o)
 .debug_abbrev  0x0000000000002d9b      0x15d /home/maddocks/src/i2c-star-stm32f411ceu6-blackpill/libopencm3/lib/libopencm3_stm32f1.a(rcc_common_all.o)
 .debug_abbrev  0x0000000000002ef8      0x129 /home/maddocks/src/i2c-star-stm32f411ceu6-blackpill/libopencm3/lib/libopencm3_stm32f1.a(usart_common_all.o)
 .debug_abbrev  0x0000000000003021       0xc8 /home/maddocks/src/i2c-star-stm32f411ceu6-blackpill/libopencm3/lib/libopencm3_stm32f1.a(usart_common_f124.o)
 .debug_abbrev  0x00000000000030e9      0x333 /home/maddocks/src/i2c-star-stm32f411ceu6-blackpill/libopencm3/lib/libopencm3_stm32f1.a(usb.o)
 .debug_abbrev  0x000000000000341c      0x477 /home/maddocks/src/i2c-star-stm32f411ceu6-blackpill/libopencm3/lib/libopencm3_stm32f1.a(usb_control.o)
 .debug_abbrev  0x0000000000003893      0x5a4 /home/maddocks/src/i2c-star-stm32f411ceu6-blackpill/libopencm3/lib/libopencm3_stm32f1.a(usb_standard.o)
 .debug_abbrev  0x0000000000003e37      0x265 /home/maddocks/src/i2c-star-stm32f411ceu6-blackpill/libopencm3/lib/libopencm3_stm32f1.a(st_usbfs_v1.o)
 .debug_abbrev  0x000000000000409c      0x145 /home/maddocks/src/i2c-star-stm32f411ceu6-blackpill/libopencm3/lib/libopencm3_stm32f1.a(vector.o)
 .debug_abbrev  0x00000000000041e1      0x155 /home/maddocks/src/i2c-star-stm32f411ceu6-blackpill/libopencm3/lib/libopencm3_stm32f1.a(systick.o)
 .debug_abbrev  0x0000000000004336      0x1f2 /home/maddocks/src/i2c-star-stm32f411ceu6-blackpill/libopencm3/lib/libopencm3_stm32f1.a(scb.o)
 .debug_abbrev  0x0000000000004528       0xb5 /home/maddocks/src/i2c-star-stm32f411ceu6-blackpill/libopencm3/lib/libopencm3_stm32f1.a(nvic.o)
 .debug_abbrev  0x00000000000045dd       0x97 /home/maddocks/src/i2c-star-stm32f411ceu6-blackpill/libopencm3/lib/libopencm3_stm32f1.a(flash_common_all.o)
 .debug_abbrev  0x0000000000004674      0x2c6 /home/maddocks/src/i2c-star-stm32f411ceu6-blackpill/libopencm3/lib/libopencm3_stm32f1.a(st_usbfs_core.o)
 .debug_abbrev  0x000000000000493a      0x20b /usr/lib/gcc/arm-none-eabi/9.2.1/../../../arm-none-eabi/lib/thumb/v7-m/nofp/libc.a(lib_a-abort.o)
 .debug_abbrev  0x0000000000004b45      0x1b6 /usr/lib/gcc/arm-none-eabi/9.2.1/../../../arm-none-eabi/lib/thumb/v7-m/nofp/libc.a(lib_a-ctype_.o)
 .debug_abbrev  0x0000000000004cfb      0x1d6 /usr/lib/gcc/arm-none-eabi/9.2.1/../../../arm-none-eabi/lib/thumb/v7-m/nofp/libc.a(lib_a-errno.o)
 .debug_abbrev  0x0000000000004ed1      0x322 /usr/lib/gcc/arm-none-eabi/9.2.1/../../../arm-none-eabi/lib/thumb/v7-m/nofp/libc.a(lib_a-fflush.o)
 .debug_abbrev  0x00000000000051f3      0x425 /usr/lib/gcc/arm-none-eabi/9.2.1/../../../arm-none-eabi/lib/thumb/v7-m/nofp/libc.a(lib_a-findfp.o)
 .debug_abbrev  0x0000000000005618      0x27a /usr/lib/gcc/arm-none-eabi/9.2.1/../../../arm-none-eabi/lib/thumb/v7-m/nofp/libc.a(lib_a-fprintf.o)
 .debug_abbrev  0x0000000000005892      0x2d0 /usr/lib/gcc/arm-none-eabi/9.2.1/../../../arm-none-eabi/lib/thumb/v7-m/nofp/libc.a(lib_a-fputc.o)
 .debug_abbrev  0x0000000000005b62      0x2a9 /usr/lib/gcc/arm-none-eabi/9.2.1/../../../arm-none-eabi/lib/thumb/v7-m/nofp/libc.a(lib_a-fputs.o)
 .debug_abbrev  0x0000000000005e0b      0x2c9 /usr/lib/gcc/arm-none-eabi/9.2.1/../../../arm-none-eabi/lib/thumb/v7-m/nofp/libc.a(lib_a-freer.o)
 .debug_abbrev  0x00000000000060d4      0x2b9 /usr/lib/gcc/arm-none-eabi/9.2.1/../../../arm-none-eabi/lib/thumb/v7-m/nofp/libc.a(lib_a-fvwrite.o)
 .debug_abbrev  0x000000000000638d      0x24e /usr/lib/gcc/arm-none-eabi/9.2.1/../../../arm-none-eabi/lib/thumb/v7-m/nofp/libc.a(lib_a-fwalk.o)
 .debug_abbrev  0x00000000000065db      0x1b8 /usr/lib/gcc/arm-none-eabi/9.2.1/../../../arm-none-eabi/lib/thumb/v7-m/nofp/libc.a(lib_a-impure.o)
 .debug_abbrev  0x0000000000006793      0x321 /usr/lib/gcc/arm-none-eabi/9.2.1/../../../arm-none-eabi/lib/thumb/v7-m/nofp/libc.a(lib_a-mallocr.o)
 .debug_abbrev  0x0000000000006ab4      0x215 /usr/lib/gcc/arm-none-eabi/9.2.1/../../../arm-none-eabi/lib/thumb/v7-m/nofp/libc.a(lib_a-memchr-stub.o)
 .debug_abbrev  0x0000000000006cc9       0x14 /usr/lib/gcc/arm-none-eabi/9.2.1/../../../arm-none-eabi/lib/thumb/v7-m/nofp/libc.a(lib_a-memcpy.o)
 .debug_abbrev  0x0000000000006cdd      0x21c /usr/lib/gcc/arm-none-eabi/9.2.1/../../../arm-none-eabi/lib/thumb/v7-m/nofp/libc.a(lib_a-memmove.o)
 .debug_abbrev  0x0000000000006ef9      0x217 /usr/lib/gcc/arm-none-eabi/9.2.1/../../../arm-none-eabi/lib/thumb/v7-m/nofp/libc.a(lib_a-memset.o)
 .debug_abbrev  0x0000000000007110      0x203 /usr/lib/gcc/arm-none-eabi/9.2.1/../../../arm-none-eabi/lib/thumb/v7-m/nofp/libc.a(lib_a-mlock.o)
 .debug_abbrev  0x0000000000007313      0x2ff /usr/lib/gcc/arm-none-eabi/9.2.1/../../../arm-none-eabi/lib/thumb/v7-m/nofp/libc.a(lib_a-putc.o)
 .debug_abbrev  0x0000000000007612      0x2c5 /usr/lib/gcc/arm-none-eabi/9.2.1/../../../arm-none-eabi/lib/thumb/v7-m/nofp/libc.a(lib_a-puts.o)
 .debug_abbrev  0x00000000000078d7      0x2a1 /usr/lib/gcc/arm-none-eabi/9.2.1/../../../arm-none-eabi/lib/thumb/v7-m/nofp/libc.a(lib_a-reallocr.o)
 .debug_abbrev  0x0000000000007b78      0x250 /usr/lib/gcc/arm-none-eabi/9.2.1/../../../arm-none-eabi/lib/thumb/v7-m/nofp/libc.a(lib_a-sbrkr.o)
 .debug_abbrev  0x0000000000007dc8      0x36b /usr/lib/gcc/arm-none-eabi/9.2.1/../../../arm-none-eabi/lib/thumb/v7-m/nofp/libc.a(lib_a-signal.o)
 .debug_abbrev  0x0000000000008133      0x255 /usr/lib/gcc/arm-none-eabi/9.2.1/../../../arm-none-eabi/lib/thumb/v7-m/nofp/libc.a(lib_a-signalr.o)
 .debug_abbrev  0x0000000000008388      0x2ad /usr/lib/gcc/arm-none-eabi/9.2.1/../../../arm-none-eabi/lib/thumb/v7-m/nofp/libc.a(lib_a-stdio.o)
 .debug_abbrev  0x0000000000008635       0x14 /usr/lib/gcc/arm-none-eabi/9.2.1/../../../arm-none-eabi/lib/thumb/v7-m/nofp/libc.a(lib_a-strcmp.o)
 .debug_abbrev  0x0000000000008649      0x1d2 /usr/lib/gcc/arm-none-eabi/9.2.1/../../../arm-none-eabi/lib/thumb/v7-m/nofp/libc.a(lib_a-strlen-stub.o)
 .debug_abbrev  0x000000000000881b      0x466 /usr/lib/gcc/arm-none-eabi/9.2.1/../../../arm-none-eabi/lib/thumb/v7-m/nofp/libc.a(lib_a-vfprintf.o)
 .debug_abbrev  0x0000000000008c81      0x2c3 /usr/lib/gcc/arm-none-eabi/9.2.1/../../../arm-none-eabi/lib/thumb/v7-m/nofp/libc.a(lib_a-wbuf.o)
 .debug_abbrev  0x0000000000008f44      0x22a /usr/lib/gcc/arm-none-eabi/9.2.1/../../../arm-none-eabi/lib/thumb/v7-m/nofp/libc.a(lib_a-writer.o)
 .debug_abbrev  0x000000000000916e      0x283 /usr/lib/gcc/arm-none-eabi/9.2.1/../../../arm-none-eabi/lib/thumb/v7-m/nofp/libc.a(lib_a-wsetup.o)
 .debug_abbrev  0x00000000000093f1      0x225 /usr/lib/gcc/arm-none-eabi/9.2.1/../../../arm-none-eabi/lib/thumb/v7-m/nofp/libc.a(lib_a-closer.o)
 .debug_abbrev  0x0000000000009616      0x343 /usr/lib/gcc/arm-none-eabi/9.2.1/../../../arm-none-eabi/lib/thumb/v7-m/nofp/libc.a(lib_a-dtoa.o)
 .debug_abbrev  0x0000000000009959      0x327 /usr/lib/gcc/arm-none-eabi/9.2.1/../../../arm-none-eabi/lib/thumb/v7-m/nofp/libc.a(lib_a-fclose.o)
 .debug_abbrev  0x0000000000009c80      0x27d /usr/lib/gcc/arm-none-eabi/9.2.1/../../../arm-none-eabi/lib/thumb/v7-m/nofp/libc.a(lib_a-localeconv.o)
 .debug_abbrev  0x0000000000009efd      0x239 /usr/lib/gcc/arm-none-eabi/9.2.1/../../../arm-none-eabi/lib/thumb/v7-m/nofp/libc.a(lib_a-lseekr.o)
 .debug_abbrev  0x000000000000a136      0x334 /usr/lib/gcc/arm-none-eabi/9.2.1/../../../arm-none-eabi/lib/thumb/v7-m/nofp/libc.a(lib_a-makebuf.o)
 .debug_abbrev  0x000000000000a46a      0x4b7 /usr/lib/gcc/arm-none-eabi/9.2.1/../../../arm-none-eabi/lib/thumb/v7-m/nofp/libc.a(lib_a-mprec.o)
 .debug_abbrev  0x000000000000a921      0x225 /usr/lib/gcc/arm-none-eabi/9.2.1/../../../arm-none-eabi/lib/thumb/v7-m/nofp/libc.a(lib_a-readr.o)
 .debug_abbrev  0x000000000000ab46      0x2ba /usr/lib/gcc/arm-none-eabi/9.2.1/../../../arm-none-eabi/lib/thumb/v7-m/nofp/libc.a(lib_a-reent.o)
 .debug_abbrev  0x000000000000ae00      0x468 /usr/lib/gcc/arm-none-eabi/9.2.1/../../../arm-none-eabi/lib/thumb/v7-m/nofp/libc.a(lib_a-vfiprintf.o)
 .debug_abbrev  0x000000000000b268      0x23d /usr/lib/gcc/arm-none-eabi/9.2.1/../../../arm-none-eabi/lib/thumb/v7-m/nofp/libc.a(lib_a-assert.o)
 .debug_abbrev  0x000000000000b4a5      0x275 /usr/lib/gcc/arm-none-eabi/9.2.1/../../../arm-none-eabi/lib/thumb/v7-m/nofp/libc.a(lib_a-callocr.o)
 .debug_abbrev  0x000000000000b71a      0x255 /usr/lib/gcc/arm-none-eabi/9.2.1/../../../arm-none-eabi/lib/thumb/v7-m/nofp/libc.a(lib_a-fiprintf.o)
 .debug_abbrev  0x000000000000b96f      0x38c /usr/lib/gcc/arm-none-eabi/9.2.1/../../../arm-none-eabi/lib/thumb/v7-m/nofp/libc.a(lib_a-fputwc.o)
 .debug_abbrev  0x000000000000bcfb      0x239 /usr/lib/gcc/arm-none-eabi/9.2.1/../../../arm-none-eabi/lib/thumb/v7-m/nofp/libc.a(lib_a-fstatr.o)
 .debug_abbrev  0x000000000000bf34      0x225 /usr/lib/gcc/arm-none-eabi/9.2.1/../../../arm-none-eabi/lib/thumb/v7-m/nofp/libc.a(lib_a-isattyr.o)
 .debug_abbrev  0x000000000000c159      0x2e8 /usr/lib/gcc/arm-none-eabi/9.2.1/../../../arm-none-eabi/lib/thumb/v7-m/nofp/libc.a(lib_a-locale.o)
 .debug_abbrev  0x000000000000c441      0x25f /usr/lib/gcc/arm-none-eabi/9.2.1/../../../arm-none-eabi/lib/thumb/v7-m/nofp/libc.a(lib_a-mbtowc_r.o)
 .debug_abbrev  0x000000000000c6a0      0x256 /usr/lib/gcc/arm-none-eabi/9.2.1/../../../arm-none-eabi/lib/thumb/v7-m/nofp/libc.a(lib_a-wcrtomb.o)
 .debug_abbrev  0x000000000000c8f6      0x258 /usr/lib/gcc/arm-none-eabi/9.2.1/../../../arm-none-eabi/lib/thumb/v7-m/nofp/libc.a(lib_a-wctomb_r.o)
 .debug_abbrev  0x000000000000cb4e       0x14 /usr/lib/gcc/arm-none-eabi/9.2.1/thumb/v7-m/nofp/libgcc.a(_arm_addsubdf3.o)
 .debug_abbrev  0x000000000000cb62       0x14 /usr/lib/gcc/arm-none-eabi/9.2.1/thumb/v7-m/nofp/libgcc.a(_arm_muldivdf3.o)
 .debug_abbrev  0x000000000000cb76       0x14 /usr/lib/gcc/arm-none-eabi/9.2.1/thumb/v7-m/nofp/libgcc.a(_arm_cmpdf2.o)
 .debug_abbrev  0x000000000000cb8a       0x14 /usr/lib/gcc/arm-none-eabi/9.2.1/thumb/v7-m/nofp/libgcc.a(_arm_unorddf2.o)
 .debug_abbrev  0x000000000000cb9e       0x14 /usr/lib/gcc/arm-none-eabi/9.2.1/thumb/v7-m/nofp/libgcc.a(_arm_fixdfsi.o)
 .debug_abbrev  0x000000000000cbb2       0x14 /usr/lib/gcc/arm-none-eabi/9.2.1/thumb/v7-m/nofp/libgcc.a(_aeabi_uldivmod.o)
 .debug_abbrev  0x000000000000cbc6      0x1c2 /usr/lib/gcc/arm-none-eabi/9.2.1/thumb/v7-m/nofp/libgcc.a(_udivmoddi4.o)
 .debug_abbrev  0x000000000000cd88       0x14 /usr/lib/gcc/arm-none-eabi/9.2.1/thumb/v7-m/nofp/libgcc.a(_dvmd_tls.o)
 .debug_abbrev  0x000000000000cd9c      0x1ea /usr/lib/gcc/arm-none-eabi/9.2.1/../../../arm-none-eabi/lib/thumb/v7-m/nofp/libnosys.a(close.o)
 .debug_abbrev  0x000000000000cf86      0x1fd /usr/lib/gcc/arm-none-eabi/9.2.1/../../../arm-none-eabi/lib/thumb/v7-m/nofp/libnosys.a(fstat.o)
 .debug_abbrev  0x000000000000d183      0x1d6 /usr/lib/gcc/arm-none-eabi/9.2.1/../../../arm-none-eabi/lib/thumb/v7-m/nofp/libnosys.a(getpid.o)
 .debug_abbrev  0x000000000000d359      0x1ea /usr/lib/gcc/arm-none-eabi/9.2.1/../../../arm-none-eabi/lib/thumb/v7-m/nofp/libnosys.a(isatty.o)
 .debug_abbrev  0x000000000000d543      0x1fb /usr/lib/gcc/arm-none-eabi/9.2.1/../../../arm-none-eabi/lib/thumb/v7-m/nofp/libnosys.a(kill.o)
 .debug_abbrev  0x000000000000d73e      0x20f /usr/lib/gcc/arm-none-eabi/9.2.1/../../../arm-none-eabi/lib/thumb/v7-m/nofp/libnosys.a(lseek.o)
 .debug_abbrev  0x000000000000d94d      0x20f /usr/lib/gcc/arm-none-eabi/9.2.1/../../../arm-none-eabi/lib/thumb/v7-m/nofp/libnosys.a(read.o)
 .debug_abbrev  0x000000000000db5c       0xa2 /usr/lib/gcc/arm-none-eabi/9.2.1/../../../arm-none-eabi/lib/thumb/v7-m/nofp/libnosys.a(sbrk.o)
 .debug_abbrev  0x000000000000dbfe       0x6a /usr/lib/gcc/arm-none-eabi/9.2.1/../../../arm-none-eabi/lib/thumb/v7-m/nofp/libnosys.a(_exit.o)

.debug_loc      0x0000000000000000    0x19846
 .debug_loc     0x0000000000000000      0x74e console.o
 .debug_loc     0x000000000000074e      0x149 console_stm32.o
 .debug_loc     0x0000000000000897      0xa02 i2c_ctx.o
 .debug_loc     0x0000000000001299      0x331 bitops.o
 .debug_loc     0x00000000000015ca      0x614 fibre.o
 .debug_loc     0x0000000000001bde      0x30b list.o
 .debug_loc     0x0000000000001ee9      0x311 messageq.o
 .debug_loc     0x00000000000021fa      0x260 regdump.o
 .debug_loc     0x000000000000245a      0x36a ringbuf.o
 .debug_loc     0x00000000000027c4       0xf9 util.o
 .debug_loc     0x00000000000028bd      0x615 i2c-stm32f1-usb.o
 .debug_loc     0x0000000000002ed2      0x1bf /home/maddocks/src/i2c-star-stm32f411ceu6-blackpill/libopencm3/lib/libopencm3_stm32f1.a(desig.o)
 .debug_loc     0x0000000000003091      0x134 /home/maddocks/src/i2c-star-stm32f411ceu6-blackpill/libopencm3/lib/libopencm3_stm32f1.a(gpio.o)
 .debug_loc     0x00000000000031c5       0xbe /home/maddocks/src/i2c-star-stm32f411ceu6-blackpill/libopencm3/lib/libopencm3_stm32f1.a(gpio_common_all.o)
 .debug_loc     0x0000000000003283      0x4c3 /home/maddocks/src/i2c-star-stm32f411ceu6-blackpill/libopencm3/lib/libopencm3_stm32f1.a(i2c_common_v1.o)
 .debug_loc     0x0000000000003746      0x39c /home/maddocks/src/i2c-star-stm32f411ceu6-blackpill/libopencm3/lib/libopencm3_stm32f1.a(rcc.o)
 .debug_loc     0x0000000000003ae2       0x6f /home/maddocks/src/i2c-star-stm32f411ceu6-blackpill/libopencm3/lib/libopencm3_stm32f1.a(rcc_common_all.o)
 .debug_loc     0x0000000000003b51      0x172 /home/maddocks/src/i2c-star-stm32f411ceu6-blackpill/libopencm3/lib/libopencm3_stm32f1.a(usart_common_all.o)
 .debug_loc     0x0000000000003cc3       0x99 /home/maddocks/src/i2c-star-stm32f411ceu6-blackpill/libopencm3/lib/libopencm3_stm32f1.a(usart_common_f124.o)
 .debug_loc     0x0000000000003d5c      0x544 /home/maddocks/src/i2c-star-stm32f411ceu6-blackpill/libopencm3/lib/libopencm3_stm32f1.a(usb.o)
 .debug_loc     0x00000000000042a0      0x81a /home/maddocks/src/i2c-star-stm32f411ceu6-blackpill/libopencm3/lib/libopencm3_stm32f1.a(usb_control.o)
 .debug_loc     0x0000000000004aba     0x13a2 /home/maddocks/src/i2c-star-stm32f411ceu6-blackpill/libopencm3/lib/libopencm3_stm32f1.a(usb_standard.o)
 .debug_loc     0x0000000000005e5c      0x1de /home/maddocks/src/i2c-star-stm32f411ceu6-blackpill/libopencm3/lib/libopencm3_stm32f1.a(st_usbfs_v1.o)
 .debug_loc     0x000000000000603a      0x128 /home/maddocks/src/i2c-star-stm32f411ceu6-blackpill/libopencm3/lib/libopencm3_stm32f1.a(vector.o)
 .debug_loc     0x0000000000006162      0x192 /home/maddocks/src/i2c-star-stm32f411ceu6-blackpill/libopencm3/lib/libopencm3_stm32f1.a(systick.o)
 .debug_loc     0x00000000000062f4       0x25 /home/maddocks/src/i2c-star-stm32f411ceu6-blackpill/libopencm3/lib/libopencm3_stm32f1.a(scb.o)
 .debug_loc     0x0000000000006319      0x14d /home/maddocks/src/i2c-star-stm32f411ceu6-blackpill/libopencm3/lib/libopencm3_stm32f1.a(nvic.o)
 .debug_loc     0x0000000000006466       0x15 /home/maddocks/src/i2c-star-stm32f411ceu6-blackpill/libopencm3/lib/libopencm3_stm32f1.a(flash_common_all.o)
 .debug_loc     0x000000000000647b      0x86b /home/maddocks/src/i2c-star-stm32f411ceu6-blackpill/libopencm3/lib/libopencm3_stm32f1.a(st_usbfs_core.o)
 .debug_loc     0x0000000000006ce6      0x334 /usr/lib/gcc/arm-none-eabi/9.2.1/../../../arm-none-eabi/lib/thumb/v7-m/nofp/libc.a(lib_a-fflush.o)
 .debug_loc     0x000000000000701a      0x32c /usr/lib/gcc/arm-none-eabi/9.2.1/../../../arm-none-eabi/lib/thumb/v7-m/nofp/libc.a(lib_a-findfp.o)
 .debug_loc     0x0000000000007346       0xa6 /usr/lib/gcc/arm-none-eabi/9.2.1/../../../arm-none-eabi/lib/thumb/v7-m/nofp/libc.a(lib_a-fprintf.o)
 .debug_loc     0x00000000000073ec      0x2e0 /usr/lib/gcc/arm-none-eabi/9.2.1/../../../arm-none-eabi/lib/thumb/v7-m/nofp/libc.a(lib_a-fputc.o)
 .debug_loc     0x00000000000076cc       0xf7 /usr/lib/gcc/arm-none-eabi/9.2.1/../../../arm-none-eabi/lib/thumb/v7-m/nofp/libc.a(lib_a-fputs.o)
 .debug_loc     0x00000000000077c3      0x701 /usr/lib/gcc/arm-none-eabi/9.2.1/../../../arm-none-eabi/lib/thumb/v7-m/nofp/libc.a(lib_a-freer.o)
 .debug_loc     0x0000000000007ec4      0x65b /usr/lib/gcc/arm-none-eabi/9.2.1/../../../arm-none-eabi/lib/thumb/v7-m/nofp/libc.a(lib_a-fvwrite.o)
 .debug_loc     0x000000000000851f      0x235 /usr/lib/gcc/arm-none-eabi/9.2.1/../../../arm-none-eabi/lib/thumb/v7-m/nofp/libc.a(lib_a-fwalk.o)
 .debug_loc     0x0000000000008754      0xf1c /usr/lib/gcc/arm-none-eabi/9.2.1/../../../arm-none-eabi/lib/thumb/v7-m/nofp/libc.a(lib_a-mallocr.o)
 .debug_loc     0x0000000000009670      0x226 /usr/lib/gcc/arm-none-eabi/9.2.1/../../../arm-none-eabi/lib/thumb/v7-m/nofp/libc.a(lib_a-memchr-stub.o)
 .debug_loc     0x0000000000009896      0x2e4 /usr/lib/gcc/arm-none-eabi/9.2.1/../../../arm-none-eabi/lib/thumb/v7-m/nofp/libc.a(lib_a-memmove.o)
 .debug_loc     0x0000000000009b7a      0x231 /usr/lib/gcc/arm-none-eabi/9.2.1/../../../arm-none-eabi/lib/thumb/v7-m/nofp/libc.a(lib_a-memset.o)
 .debug_loc     0x0000000000009dab      0x3cf /usr/lib/gcc/arm-none-eabi/9.2.1/../../../arm-none-eabi/lib/thumb/v7-m/nofp/libc.a(lib_a-putc.o)
 .debug_loc     0x000000000000a17a      0x10d /usr/lib/gcc/arm-none-eabi/9.2.1/../../../arm-none-eabi/lib/thumb/v7-m/nofp/libc.a(lib_a-puts.o)
 .debug_loc     0x000000000000a287     0x1291 /usr/lib/gcc/arm-none-eabi/9.2.1/../../../arm-none-eabi/lib/thumb/v7-m/nofp/libc.a(lib_a-reallocr.o)
 .debug_loc     0x000000000000b518       0x6c /usr/lib/gcc/arm-none-eabi/9.2.1/../../../arm-none-eabi/lib/thumb/v7-m/nofp/libc.a(lib_a-sbrkr.o)
 .debug_loc     0x000000000000b584      0x55d /usr/lib/gcc/arm-none-eabi/9.2.1/../../../arm-none-eabi/lib/thumb/v7-m/nofp/libc.a(lib_a-signal.o)
 .debug_loc     0x000000000000bae1       0xc3 /usr/lib/gcc/arm-none-eabi/9.2.1/../../../arm-none-eabi/lib/thumb/v7-m/nofp/libc.a(lib_a-signalr.o)
 .debug_loc     0x000000000000bba4      0x3a0 /usr/lib/gcc/arm-none-eabi/9.2.1/../../../arm-none-eabi/lib/thumb/v7-m/nofp/libc.a(lib_a-stdio.o)
 .debug_loc     0x000000000000bf44       0x25 /usr/lib/gcc/arm-none-eabi/9.2.1/../../../arm-none-eabi/lib/thumb/v7-m/nofp/libc.a(lib_a-strlen-stub.o)
 .debug_loc     0x000000000000bf69     0x36b3 /usr/lib/gcc/arm-none-eabi/9.2.1/../../../arm-none-eabi/lib/thumb/v7-m/nofp/libc.a(lib_a-vfprintf.o)
 .debug_loc     0x000000000000f61c      0x1b0 /usr/lib/gcc/arm-none-eabi/9.2.1/../../../arm-none-eabi/lib/thumb/v7-m/nofp/libc.a(lib_a-wbuf.o)
 .debug_loc     0x000000000000f7cc       0xd0 /usr/lib/gcc/arm-none-eabi/9.2.1/../../../arm-none-eabi/lib/thumb/v7-m/nofp/libc.a(lib_a-writer.o)
 .debug_loc     0x000000000000f89c       0xa0 /usr/lib/gcc/arm-none-eabi/9.2.1/../../../arm-none-eabi/lib/thumb/v7-m/nofp/libc.a(lib_a-wsetup.o)
 .debug_loc     0x000000000000f93c       0x6c /usr/lib/gcc/arm-none-eabi/9.2.1/../../../arm-none-eabi/lib/thumb/v7-m/nofp/libc.a(lib_a-closer.o)
 .debug_loc     0x000000000000f9a8     0x2ee5 /usr/lib/gcc/arm-none-eabi/9.2.1/../../../arm-none-eabi/lib/thumb/v7-m/nofp/libc.a(lib_a-dtoa.o)
 .debug_loc     0x000000000001288d      0x179 /usr/lib/gcc/arm-none-eabi/9.2.1/../../../arm-none-eabi/lib/thumb/v7-m/nofp/libc.a(lib_a-fclose.o)
 .debug_loc     0x0000000000012a06       0x6f /usr/lib/gcc/arm-none-eabi/9.2.1/../../../arm-none-eabi/lib/thumb/v7-m/nofp/libc.a(lib_a-localeconv.o)
 .debug_loc     0x0000000000012a75       0xd0 /usr/lib/gcc/arm-none-eabi/9.2.1/../../../arm-none-eabi/lib/thumb/v7-m/nofp/libc.a(lib_a-lseekr.o)
 .debug_loc     0x0000000000012b45      0x192 /usr/lib/gcc/arm-none-eabi/9.2.1/../../../arm-none-eabi/lib/thumb/v7-m/nofp/libc.a(lib_a-makebuf.o)
 .debug_loc     0x0000000000012cd7     0x22b2 /usr/lib/gcc/arm-none-eabi/9.2.1/../../../arm-none-eabi/lib/thumb/v7-m/nofp/libc.a(lib_a-mprec.o)
 .debug_loc     0x0000000000014f89       0xd0 /usr/lib/gcc/arm-none-eabi/9.2.1/../../../arm-none-eabi/lib/thumb/v7-m/nofp/libc.a(lib_a-readr.o)
 .debug_loc     0x0000000000015059      0x152 /usr/lib/gcc/arm-none-eabi/9.2.1/../../../arm-none-eabi/lib/thumb/v7-m/nofp/libc.a(lib_a-reent.o)
 .debug_loc     0x00000000000151ab     0x2491 /usr/lib/gcc/arm-none-eabi/9.2.1/../../../arm-none-eabi/lib/thumb/v7-m/nofp/libc.a(lib_a-vfiprintf.o)
 .debug_loc     0x000000000001763c      0x15c /usr/lib/gcc/arm-none-eabi/9.2.1/../../../arm-none-eabi/lib/thumb/v7-m/nofp/libc.a(lib_a-assert.o)
 .debug_loc     0x0000000000017798      0x2d6 /usr/lib/gcc/arm-none-eabi/9.2.1/../../../arm-none-eabi/lib/thumb/v7-m/nofp/libc.a(lib_a-callocr.o)
 .debug_loc     0x0000000000017a6e       0xa6 /usr/lib/gcc/arm-none-eabi/9.2.1/../../../arm-none-eabi/lib/thumb/v7-m/nofp/libc.a(lib_a-fiprintf.o)
 .debug_loc     0x0000000000017b14      0x37e /usr/lib/gcc/arm-none-eabi/9.2.1/../../../arm-none-eabi/lib/thumb/v7-m/nofp/libc.a(lib_a-fputwc.o)
 .debug_loc     0x0000000000017e92       0x9e /usr/lib/gcc/arm-none-eabi/9.2.1/../../../arm-none-eabi/lib/thumb/v7-m/nofp/libc.a(lib_a-fstatr.o)
 .debug_loc     0x0000000000017f30       0x6c /usr/lib/gcc/arm-none-eabi/9.2.1/../../../arm-none-eabi/lib/thumb/v7-m/nofp/libc.a(lib_a-isattyr.o)
 .debug_loc     0x0000000000017f9c      0x189 /usr/lib/gcc/arm-none-eabi/9.2.1/../../../arm-none-eabi/lib/thumb/v7-m/nofp/libc.a(lib_a-locale.o)
 .debug_loc     0x0000000000018125      0x21d /usr/lib/gcc/arm-none-eabi/9.2.1/../../../arm-none-eabi/lib/thumb/v7-m/nofp/libc.a(lib_a-mbtowc_r.o)
 .debug_loc     0x0000000000018342      0x2b1 /usr/lib/gcc/arm-none-eabi/9.2.1/../../../arm-none-eabi/lib/thumb/v7-m/nofp/libc.a(lib_a-wcrtomb.o)
 .debug_loc     0x00000000000185f3      0x152 /usr/lib/gcc/arm-none-eabi/9.2.1/../../../arm-none-eabi/lib/thumb/v7-m/nofp/libc.a(lib_a-wctomb_r.o)
 .debug_loc     0x0000000000018745      0xf86 /usr/lib/gcc/arm-none-eabi/9.2.1/thumb/v7-m/nofp/libgcc.a(_udivmoddi4.o)
 .debug_loc     0x00000000000196cb       0x25 /usr/lib/gcc/arm-none-eabi/9.2.1/../../../arm-none-eabi/lib/thumb/v7-m/nofp/libnosys.a(close.o)
 .debug_loc     0x00000000000196f0       0x25 /usr/lib/gcc/arm-none-eabi/9.2.1/../../../arm-none-eabi/lib/thumb/v7-m/nofp/libnosys.a(fstat.o)
 .debug_loc     0x0000000000019715       0x25 /usr/lib/gcc/arm-none-eabi/9.2.1/../../../arm-none-eabi/lib/thumb/v7-m/nofp/libnosys.a(isatty.o)
 .debug_loc     0x000000000001973a       0x25 /usr/lib/gcc/arm-none-eabi/9.2.1/../../../arm-none-eabi/lib/thumb/v7-m/nofp/libnosys.a(kill.o)
 .debug_loc     0x000000000001975f       0x4a /usr/lib/gcc/arm-none-eabi/9.2.1/../../../arm-none-eabi/lib/thumb/v7-m/nofp/libnosys.a(lseek.o)
 .debug_loc     0x00000000000197a9       0x4a /usr/lib/gcc/arm-none-eabi/9.2.1/../../../arm-none-eabi/lib/thumb/v7-m/nofp/libnosys.a(read.o)
 .debug_loc     0x00000000000197f3       0x3e /usr/lib/gcc/arm-none-eabi/9.2.1/../../../arm-none-eabi/lib/thumb/v7-m/nofp/libnosys.a(sbrk.o)
 .debug_loc     0x0000000000019831       0x15 /usr/lib/gcc/arm-none-eabi/9.2.1/../../../arm-none-eabi/lib/thumb/v7-m/nofp/libnosys.a(_exit.o)

.debug_aranges  0x0000000000000000     0x1460
 .debug_aranges
                0x0000000000000000       0x78 console.o
 .debug_aranges
                0x0000000000000078       0x30 console_stm32.o
 .debug_aranges
                0x00000000000000a8       0x78 i2c_ctx.o
 .debug_aranges
                0x0000000000000120       0x38 bitops.o
 .debug_aranges
                0x0000000000000158       0x98 fibre.o
 .debug_aranges
                0x00000000000001f0       0x20 fibre_default.o
 .debug_aranges
                0x0000000000000210       0x68 list.o
 .debug_aranges
                0x0000000000000278       0x40 messageq.o
 .debug_aranges
                0x00000000000002b8       0x38 regdump.o
 .debug_aranges
                0x00000000000002f0       0x40 ringbuf.o
 .debug_aranges
                0x0000000000000330       0x38 time_libopencm3.o
 .debug_aranges
                0x0000000000000368       0x38 util.o
 .debug_aranges
                0x00000000000003a0       0x48 i2c-stm32f1-usb.o
 .debug_aranges
                0x00000000000003e8       0x38 /home/maddocks/src/i2c-star-stm32f411ceu6-blackpill/libopencm3/lib/libopencm3_stm32f1.a(desig.o)
 .debug_aranges
                0x0000000000000420       0x38 /home/maddocks/src/i2c-star-stm32f411ceu6-blackpill/libopencm3/lib/libopencm3_stm32f1.a(gpio.o)
 .debug_aranges
                0x0000000000000458       0x50 /home/maddocks/src/i2c-star-stm32f411ceu6-blackpill/libopencm3/lib/libopencm3_stm32f1.a(gpio_common_all.o)
 .debug_aranges
                0x00000000000004a8      0x118 /home/maddocks/src/i2c-star-stm32f411ceu6-blackpill/libopencm3/lib/libopencm3_stm32f1.a(i2c_common_v1.o)
 .debug_aranges
                0x00000000000005c0      0x158 /home/maddocks/src/i2c-star-stm32f411ceu6-blackpill/libopencm3/lib/libopencm3_stm32f1.a(rcc.o)
 .debug_aranges
                0x0000000000000718       0x58 /home/maddocks/src/i2c-star-stm32f411ceu6-blackpill/libopencm3/lib/libopencm3_stm32f1.a(rcc_common_all.o)
 .debug_aranges
                0x0000000000000770       0xb8 /home/maddocks/src/i2c-star-stm32f411ceu6-blackpill/libopencm3/lib/libopencm3_stm32f1.a(usart_common_all.o)
 .debug_aranges
                0x0000000000000828       0x40 /home/maddocks/src/i2c-star-stm32f411ceu6-blackpill/libopencm3/lib/libopencm3_stm32f1.a(usart_common_f124.o)
 .debug_aranges
                0x0000000000000868       0x88 /home/maddocks/src/i2c-star-stm32f411ceu6-blackpill/libopencm3/lib/libopencm3_stm32f1.a(usb.o)
 .debug_aranges
                0x00000000000008f0       0x60 /home/maddocks/src/i2c-star-stm32f411ceu6-blackpill/libopencm3/lib/libopencm3_stm32f1.a(usb_control.o)
 .debug_aranges
                0x0000000000000950       0x98 /home/maddocks/src/i2c-star-stm32f411ceu6-blackpill/libopencm3/lib/libopencm3_stm32f1.a(usb_standard.o)
 .debug_aranges
                0x00000000000009e8       0x30 /home/maddocks/src/i2c-star-stm32f411ceu6-blackpill/libopencm3/lib/libopencm3_stm32f1.a(st_usbfs_v1.o)
 .debug_aranges
                0x0000000000000a18       0x30 /home/maddocks/src/i2c-star-stm32f411ceu6-blackpill/libopencm3/lib/libopencm3_stm32f1.a(vector.o)
 .debug_aranges
                0x0000000000000a48       0x78 /home/maddocks/src/i2c-star-stm32f411ceu6-blackpill/libopencm3/lib/libopencm3_stm32f1.a(systick.o)
 .debug_aranges
                0x0000000000000ac0       0x30 /home/maddocks/src/i2c-star-stm32f411ceu6-blackpill/libopencm3/lib/libopencm3_stm32f1.a(scb.o)
 .debug_aranges
                0x0000000000000af0       0x60 /home/maddocks/src/i2c-star-stm32f411ceu6-blackpill/libopencm3/lib/libopencm3_stm32f1.a(nvic.o)
 .debug_aranges
                0x0000000000000b50       0x38 /home/maddocks/src/i2c-star-stm32f411ceu6-blackpill/libopencm3/lib/libopencm3_stm32f1.a(flash_common_all.o)
 .debug_aranges
                0x0000000000000b88       0x68 /home/maddocks/src/i2c-star-stm32f411ceu6-blackpill/libopencm3/lib/libopencm3_stm32f1.a(st_usbfs_core.o)
 .debug_aranges
                0x0000000000000bf0       0x20 /usr/lib/gcc/arm-none-eabi/9.2.1/../../../arm-none-eabi/lib/thumb/v7-m/nofp/libc.a(lib_a-abort.o)
 .debug_aranges
                0x0000000000000c10       0x18 /usr/lib/gcc/arm-none-eabi/9.2.1/../../../arm-none-eabi/lib/thumb/v7-m/nofp/libc.a(lib_a-ctype_.o)
 .debug_aranges
                0x0000000000000c28       0x20 /usr/lib/gcc/arm-none-eabi/9.2.1/../../../arm-none-eabi/lib/thumb/v7-m/nofp/libc.a(lib_a-errno.o)
 .debug_aranges
                0x0000000000000c48       0x20 /usr/lib/gcc/arm-none-eabi/9.2.1/../../../arm-none-eabi/lib/thumb/v7-m/nofp/libc.a(lib_a-fflush.o)
 .debug_aranges
                0x0000000000000c68       0x20 /usr/lib/gcc/arm-none-eabi/9.2.1/../../../arm-none-eabi/lib/thumb/v7-m/nofp/libc.a(lib_a-findfp.o)
 .debug_aranges
                0x0000000000000c88       0x20 /usr/lib/gcc/arm-none-eabi/9.2.1/../../../arm-none-eabi/lib/thumb/v7-m/nofp/libc.a(lib_a-fprintf.o)
 .debug_aranges
                0x0000000000000ca8       0x20 /usr/lib/gcc/arm-none-eabi/9.2.1/../../../arm-none-eabi/lib/thumb/v7-m/nofp/libc.a(lib_a-fputc.o)
 .debug_aranges
                0x0000000000000cc8       0x20 /usr/lib/gcc/arm-none-eabi/9.2.1/../../../arm-none-eabi/lib/thumb/v7-m/nofp/libc.a(lib_a-fputs.o)
 .debug_aranges
                0x0000000000000ce8       0x20 /usr/lib/gcc/arm-none-eabi/9.2.1/../../../arm-none-eabi/lib/thumb/v7-m/nofp/libc.a(lib_a-freer.o)
 .debug_aranges
                0x0000000000000d08       0x20 /usr/lib/gcc/arm-none-eabi/9.2.1/../../../arm-none-eabi/lib/thumb/v7-m/nofp/libc.a(lib_a-fvwrite.o)
 .debug_aranges
                0x0000000000000d28       0x20 /usr/lib/gcc/arm-none-eabi/9.2.1/../../../arm-none-eabi/lib/thumb/v7-m/nofp/libc.a(lib_a-fwalk.o)
 .debug_aranges
                0x0000000000000d48       0x18 /usr/lib/gcc/arm-none-eabi/9.2.1/../../../arm-none-eabi/lib/thumb/v7-m/nofp/libc.a(lib_a-impure.o)
 .debug_aranges
                0x0000000000000d60       0x20 /usr/lib/gcc/arm-none-eabi/9.2.1/../../../arm-none-eabi/lib/thumb/v7-m/nofp/libc.a(lib_a-mallocr.o)
 .debug_aranges
                0x0000000000000d80       0x20 /usr/lib/gcc/arm-none-eabi/9.2.1/../../../arm-none-eabi/lib/thumb/v7-m/nofp/libc.a(lib_a-memchr-stub.o)
 .debug_aranges
                0x0000000000000da0       0x20 /usr/lib/gcc/arm-none-eabi/9.2.1/../../../arm-none-eabi/lib/thumb/v7-m/nofp/libc.a(lib_a-memcpy.o)
 .debug_aranges
                0x0000000000000dc0       0x20 /usr/lib/gcc/arm-none-eabi/9.2.1/../../../arm-none-eabi/lib/thumb/v7-m/nofp/libc.a(lib_a-memmove.o)
 .debug_aranges
                0x0000000000000de0       0x20 /usr/lib/gcc/arm-none-eabi/9.2.1/../../../arm-none-eabi/lib/thumb/v7-m/nofp/libc.a(lib_a-memset.o)
 .debug_aranges
                0x0000000000000e00       0x20 /usr/lib/gcc/arm-none-eabi/9.2.1/../../../arm-none-eabi/lib/thumb/v7-m/nofp/libc.a(lib_a-mlock.o)
 .debug_aranges
                0x0000000000000e20       0x20 /usr/lib/gcc/arm-none-eabi/9.2.1/../../../arm-none-eabi/lib/thumb/v7-m/nofp/libc.a(lib_a-putc.o)
 .debug_aranges
                0x0000000000000e40       0x20 /usr/lib/gcc/arm-none-eabi/9.2.1/../../../arm-none-eabi/lib/thumb/v7-m/nofp/libc.a(lib_a-puts.o)
 .debug_aranges
                0x0000000000000e60       0x20 /usr/lib/gcc/arm-none-eabi/9.2.1/../../../arm-none-eabi/lib/thumb/v7-m/nofp/libc.a(lib_a-reallocr.o)
 .debug_aranges
                0x0000000000000e80       0x20 /usr/lib/gcc/arm-none-eabi/9.2.1/../../../arm-none-eabi/lib/thumb/v7-m/nofp/libc.a(lib_a-sbrkr.o)
 .debug_aranges
                0x0000000000000ea0       0x20 /usr/lib/gcc/arm-none-eabi/9.2.1/../../../arm-none-eabi/lib/thumb/v7-m/nofp/libc.a(lib_a-signal.o)
 .debug_aranges
                0x0000000000000ec0       0x20 /usr/lib/gcc/arm-none-eabi/9.2.1/../../../arm-none-eabi/lib/thumb/v7-m/nofp/libc.a(lib_a-signalr.o)
 .debug_aranges
                0x0000000000000ee0       0x20 /usr/lib/gcc/arm-none-eabi/9.2.1/../../../arm-none-eabi/lib/thumb/v7-m/nofp/libc.a(lib_a-stdio.o)
 .debug_aranges
                0x0000000000000f00       0x20 /usr/lib/gcc/arm-none-eabi/9.2.1/../../../arm-none-eabi/lib/thumb/v7-m/nofp/libc.a(lib_a-strcmp.o)
 .debug_aranges
                0x0000000000000f20       0x20 /usr/lib/gcc/arm-none-eabi/9.2.1/../../../arm-none-eabi/lib/thumb/v7-m/nofp/libc.a(lib_a-strlen-stub.o)
 .debug_aranges
                0x0000000000000f40       0x20 /usr/lib/gcc/arm-none-eabi/9.2.1/../../../arm-none-eabi/lib/thumb/v7-m/nofp/libc.a(lib_a-vfprintf.o)
 .debug_aranges
                0x0000000000000f60       0x20 /usr/lib/gcc/arm-none-eabi/9.2.1/../../../arm-none-eabi/lib/thumb/v7-m/nofp/libc.a(lib_a-wbuf.o)
 .debug_aranges
                0x0000000000000f80       0x20 /usr/lib/gcc/arm-none-eabi/9.2.1/../../../arm-none-eabi/lib/thumb/v7-m/nofp/libc.a(lib_a-writer.o)
 .debug_aranges
                0x0000000000000fa0       0x20 /usr/lib/gcc/arm-none-eabi/9.2.1/../../../arm-none-eabi/lib/thumb/v7-m/nofp/libc.a(lib_a-wsetup.o)
 .debug_aranges
                0x0000000000000fc0       0x20 /usr/lib/gcc/arm-none-eabi/9.2.1/../../../arm-none-eabi/lib/thumb/v7-m/nofp/libc.a(lib_a-closer.o)
 .debug_aranges
                0x0000000000000fe0       0x20 /usr/lib/gcc/arm-none-eabi/9.2.1/../../../arm-none-eabi/lib/thumb/v7-m/nofp/libc.a(lib_a-dtoa.o)
 .debug_aranges
                0x0000000000001000       0x20 /usr/lib/gcc/arm-none-eabi/9.2.1/../../../arm-none-eabi/lib/thumb/v7-m/nofp/libc.a(lib_a-fclose.o)
 .debug_aranges
                0x0000000000001020       0x20 /usr/lib/gcc/arm-none-eabi/9.2.1/../../../arm-none-eabi/lib/thumb/v7-m/nofp/libc.a(lib_a-localeconv.o)
 .debug_aranges
                0x0000000000001040       0x20 /usr/lib/gcc/arm-none-eabi/9.2.1/../../../arm-none-eabi/lib/thumb/v7-m/nofp/libc.a(lib_a-lseekr.o)
 .debug_aranges
                0x0000000000001060       0x20 /usr/lib/gcc/arm-none-eabi/9.2.1/../../../arm-none-eabi/lib/thumb/v7-m/nofp/libc.a(lib_a-makebuf.o)
 .debug_aranges
                0x0000000000001080       0x20 /usr/lib/gcc/arm-none-eabi/9.2.1/../../../arm-none-eabi/lib/thumb/v7-m/nofp/libc.a(lib_a-mprec.o)
 .debug_aranges
                0x00000000000010a0       0x20 /usr/lib/gcc/arm-none-eabi/9.2.1/../../../arm-none-eabi/lib/thumb/v7-m/nofp/libc.a(lib_a-readr.o)
 .debug_aranges
                0x00000000000010c0       0x20 /usr/lib/gcc/arm-none-eabi/9.2.1/../../../arm-none-eabi/lib/thumb/v7-m/nofp/libc.a(lib_a-reent.o)
 .debug_aranges
                0x00000000000010e0       0x20 /usr/lib/gcc/arm-none-eabi/9.2.1/../../../arm-none-eabi/lib/thumb/v7-m/nofp/libc.a(lib_a-vfiprintf.o)
 .debug_aranges
                0x0000000000001100       0x20 /usr/lib/gcc/arm-none-eabi/9.2.1/../../../arm-none-eabi/lib/thumb/v7-m/nofp/libc.a(lib_a-assert.o)
 .debug_aranges
                0x0000000000001120       0x20 /usr/lib/gcc/arm-none-eabi/9.2.1/../../../arm-none-eabi/lib/thumb/v7-m/nofp/libc.a(lib_a-callocr.o)
 .debug_aranges
                0x0000000000001140       0x20 /usr/lib/gcc/arm-none-eabi/9.2.1/../../../arm-none-eabi/lib/thumb/v7-m/nofp/libc.a(lib_a-fiprintf.o)
 .debug_aranges
                0x0000000000001160       0x20 /usr/lib/gcc/arm-none-eabi/9.2.1/../../../arm-none-eabi/lib/thumb/v7-m/nofp/libc.a(lib_a-fputwc.o)
 .debug_aranges
                0x0000000000001180       0x20 /usr/lib/gcc/arm-none-eabi/9.2.1/../../../arm-none-eabi/lib/thumb/v7-m/nofp/libc.a(lib_a-fstatr.o)
 .debug_aranges
                0x00000000000011a0       0x20 /usr/lib/gcc/arm-none-eabi/9.2.1/../../../arm-none-eabi/lib/thumb/v7-m/nofp/libc.a(lib_a-isattyr.o)
 .debug_aranges
                0x00000000000011c0       0x20 /usr/lib/gcc/arm-none-eabi/9.2.1/../../../arm-none-eabi/lib/thumb/v7-m/nofp/libc.a(lib_a-locale.o)
 .debug_aranges
                0x00000000000011e0       0x20 /usr/lib/gcc/arm-none-eabi/9.2.1/../../../arm-none-eabi/lib/thumb/v7-m/nofp/libc.a(lib_a-mbtowc_r.o)
 .debug_aranges
                0x0000000000001200       0x20 /usr/lib/gcc/arm-none-eabi/9.2.1/../../../arm-none-eabi/lib/thumb/v7-m/nofp/libc.a(lib_a-wcrtomb.o)
 .debug_aranges
                0x0000000000001220       0x20 /usr/lib/gcc/arm-none-eabi/9.2.1/../../../arm-none-eabi/lib/thumb/v7-m/nofp/libc.a(lib_a-wctomb_r.o)
 .debug_aranges
                0x0000000000001240       0x20 /usr/lib/gcc/arm-none-eabi/9.2.1/thumb/v7-m/nofp/libgcc.a(_arm_addsubdf3.o)
 .debug_aranges
                0x0000000000001260       0x20 /usr/lib/gcc/arm-none-eabi/9.2.1/thumb/v7-m/nofp/libgcc.a(_arm_muldivdf3.o)
 .debug_aranges
                0x0000000000001280       0x20 /usr/lib/gcc/arm-none-eabi/9.2.1/thumb/v7-m/nofp/libgcc.a(_arm_cmpdf2.o)
 .debug_aranges
                0x00000000000012a0       0x20 /usr/lib/gcc/arm-none-eabi/9.2.1/thumb/v7-m/nofp/libgcc.a(_arm_unorddf2.o)
 .debug_aranges
                0x00000000000012c0       0x20 /usr/lib/gcc/arm-none-eabi/9.2.1/thumb/v7-m/nofp/libgcc.a(_arm_fixdfsi.o)
 .debug_aranges
                0x00000000000012e0       0x20 /usr/lib/gcc/arm-none-eabi/9.2.1/thumb/v7-m/nofp/libgcc.a(_aeabi_uldivmod.o)
 .debug_aranges
                0x0000000000001300       0x20 /usr/lib/gcc/arm-none-eabi/9.2.1/thumb/v7-m/nofp/libgcc.a(_udivmoddi4.o)
 .debug_aranges
                0x0000000000001320       0x20 /usr/lib/gcc/arm-none-eabi/9.2.1/thumb/v7-m/nofp/libgcc.a(_dvmd_tls.o)
 .debug_aranges
                0x0000000000001340       0x20 /usr/lib/gcc/arm-none-eabi/9.2.1/../../../arm-none-eabi/lib/thumb/v7-m/nofp/libnosys.a(close.o)
 .debug_aranges
                0x0000000000001360       0x20 /usr/lib/gcc/arm-none-eabi/9.2.1/../../../arm-none-eabi/lib/thumb/v7-m/nofp/libnosys.a(fstat.o)
 .debug_aranges
                0x0000000000001380       0x20 /usr/lib/gcc/arm-none-eabi/9.2.1/../../../arm-none-eabi/lib/thumb/v7-m/nofp/libnosys.a(getpid.o)
 .debug_aranges
                0x00000000000013a0       0x20 /usr/lib/gcc/arm-none-eabi/9.2.1/../../../arm-none-eabi/lib/thumb/v7-m/nofp/libnosys.a(isatty.o)
 .debug_aranges
                0x00000000000013c0       0x20 /usr/lib/gcc/arm-none-eabi/9.2.1/../../../arm-none-eabi/lib/thumb/v7-m/nofp/libnosys.a(kill.o)
 .debug_aranges
                0x00000000000013e0       0x20 /usr/lib/gcc/arm-none-eabi/9.2.1/../../../arm-none-eabi/lib/thumb/v7-m/nofp/libnosys.a(lseek.o)
 .debug_aranges
                0x0000000000001400       0x20 /usr/lib/gcc/arm-none-eabi/9.2.1/../../../arm-none-eabi/lib/thumb/v7-m/nofp/libnosys.a(read.o)
 .debug_aranges
                0x0000000000001420       0x20 /usr/lib/gcc/arm-none-eabi/9.2.1/../../../arm-none-eabi/lib/thumb/v7-m/nofp/libnosys.a(sbrk.o)
 .debug_aranges
                0x0000000000001440       0x20 /usr/lib/gcc/arm-none-eabi/9.2.1/../../../arm-none-eabi/lib/thumb/v7-m/nofp/libnosys.a(_exit.o)

.debug_ranges   0x0000000000000000     0x1cc8
 .debug_ranges  0x0000000000000000      0x1b8 console.o
 .debug_ranges  0x00000000000001b8       0x58 console_stm32.o
 .debug_ranges  0x0000000000000210      0x268 i2c_ctx.o
 .debug_ranges  0x0000000000000478       0x28 bitops.o
 .debug_ranges  0x00000000000004a0       0xe8 fibre.o
 .debug_ranges  0x0000000000000588       0x10 fibre_default.o
 .debug_ranges  0x0000000000000598       0x88 list.o
 .debug_ranges  0x0000000000000620       0x48 messageq.o
 .debug_ranges  0x0000000000000668       0x28 regdump.o
 .debug_ranges  0x0000000000000690       0x90 ringbuf.o
 .debug_ranges  0x0000000000000720       0x28 time_libopencm3.o
 .debug_ranges  0x0000000000000748       0x28 util.o
 .debug_ranges  0x0000000000000770      0x100 i2c-stm32f1-usb.o
 .debug_ranges  0x0000000000000870       0x28 /home/maddocks/src/i2c-star-stm32f411ceu6-blackpill/libopencm3/lib/libopencm3_stm32f1.a(desig.o)
 .debug_ranges  0x0000000000000898       0x28 /home/maddocks/src/i2c-star-stm32f411ceu6-blackpill/libopencm3/lib/libopencm3_stm32f1.a(gpio.o)
 .debug_ranges  0x00000000000008c0       0x40 /home/maddocks/src/i2c-star-stm32f411ceu6-blackpill/libopencm3/lib/libopencm3_stm32f1.a(gpio_common_all.o)
 .debug_ranges  0x0000000000000900      0x128 /home/maddocks/src/i2c-star-stm32f411ceu6-blackpill/libopencm3/lib/libopencm3_stm32f1.a(i2c_common_v1.o)
 .debug_ranges  0x0000000000000a28      0x1b8 /home/maddocks/src/i2c-star-stm32f411ceu6-blackpill/libopencm3/lib/libopencm3_stm32f1.a(rcc.o)
 .debug_ranges  0x0000000000000be0       0x48 /home/maddocks/src/i2c-star-stm32f411ceu6-blackpill/libopencm3/lib/libopencm3_stm32f1.a(rcc_common_all.o)
 .debug_ranges  0x0000000000000c28       0xa8 /home/maddocks/src/i2c-star-stm32f411ceu6-blackpill/libopencm3/lib/libopencm3_stm32f1.a(usart_common_all.o)
 .debug_ranges  0x0000000000000cd0       0x30 /home/maddocks/src/i2c-star-stm32f411ceu6-blackpill/libopencm3/lib/libopencm3_stm32f1.a(usart_common_f124.o)
 .debug_ranges  0x0000000000000d00       0x78 /home/maddocks/src/i2c-star-stm32f411ceu6-blackpill/libopencm3/lib/libopencm3_stm32f1.a(usb.o)
 .debug_ranges  0x0000000000000d78       0x90 /home/maddocks/src/i2c-star-stm32f411ceu6-blackpill/libopencm3/lib/libopencm3_stm32f1.a(usb_control.o)
 .debug_ranges  0x0000000000000e08      0x108 /home/maddocks/src/i2c-star-stm32f411ceu6-blackpill/libopencm3/lib/libopencm3_stm32f1.a(usb_standard.o)
 .debug_ranges  0x0000000000000f10       0x20 /home/maddocks/src/i2c-star-stm32f411ceu6-blackpill/libopencm3/lib/libopencm3_stm32f1.a(st_usbfs_v1.o)
 .debug_ranges  0x0000000000000f30       0x20 /home/maddocks/src/i2c-star-stm32f411ceu6-blackpill/libopencm3/lib/libopencm3_stm32f1.a(vector.o)
 .debug_ranges  0x0000000000000f50       0x88 /home/maddocks/src/i2c-star-stm32f411ceu6-blackpill/libopencm3/lib/libopencm3_stm32f1.a(systick.o)
 .debug_ranges  0x0000000000000fd8       0x20 /home/maddocks/src/i2c-star-stm32f411ceu6-blackpill/libopencm3/lib/libopencm3_stm32f1.a(scb.o)
 .debug_ranges  0x0000000000000ff8       0x50 /home/maddocks/src/i2c-star-stm32f411ceu6-blackpill/libopencm3/lib/libopencm3_stm32f1.a(nvic.o)
 .debug_ranges  0x0000000000001048       0x28 /home/maddocks/src/i2c-star-stm32f411ceu6-blackpill/libopencm3/lib/libopencm3_stm32f1.a(flash_common_all.o)
 .debug_ranges  0x0000000000001070      0x108 /home/maddocks/src/i2c-star-stm32f411ceu6-blackpill/libopencm3/lib/libopencm3_stm32f1.a(st_usbfs_core.o)
 .debug_ranges  0x0000000000001178       0x70 /usr/lib/gcc/arm-none-eabi/9.2.1/../../../arm-none-eabi/lib/thumb/v7-m/nofp/libc.a(lib_a-fflush.o)
 .debug_ranges  0x00000000000011e8      0x118 /usr/lib/gcc/arm-none-eabi/9.2.1/../../../arm-none-eabi/lib/thumb/v7-m/nofp/libc.a(lib_a-findfp.o)
 .debug_ranges  0x0000000000001300       0x48 /usr/lib/gcc/arm-none-eabi/9.2.1/../../../arm-none-eabi/lib/thumb/v7-m/nofp/libc.a(lib_a-fputc.o)
 .debug_ranges  0x0000000000001348       0x18 /usr/lib/gcc/arm-none-eabi/9.2.1/../../../arm-none-eabi/lib/thumb/v7-m/nofp/libc.a(lib_a-fputs.o)
 .debug_ranges  0x0000000000001360       0x28 /usr/lib/gcc/arm-none-eabi/9.2.1/../../../arm-none-eabi/lib/thumb/v7-m/nofp/libc.a(lib_a-fvwrite.o)
 .debug_ranges  0x0000000000001388       0x38 /usr/lib/gcc/arm-none-eabi/9.2.1/../../../arm-none-eabi/lib/thumb/v7-m/nofp/libc.a(lib_a-mallocr.o)
 .debug_ranges  0x00000000000013c0       0x90 /usr/lib/gcc/arm-none-eabi/9.2.1/../../../arm-none-eabi/lib/thumb/v7-m/nofp/libc.a(lib_a-putc.o)
 .debug_ranges  0x0000000000001450       0x20 /usr/lib/gcc/arm-none-eabi/9.2.1/../../../arm-none-eabi/lib/thumb/v7-m/nofp/libc.a(lib_a-puts.o)
 .debug_ranges  0x0000000000001470      0x128 /usr/lib/gcc/arm-none-eabi/9.2.1/../../../arm-none-eabi/lib/thumb/v7-m/nofp/libc.a(lib_a-reallocr.o)
 .debug_ranges  0x0000000000001598       0x30 /usr/lib/gcc/arm-none-eabi/9.2.1/../../../arm-none-eabi/lib/thumb/v7-m/nofp/libc.a(lib_a-signal.o)
 .debug_ranges  0x00000000000015c8       0x10 /usr/lib/gcc/arm-none-eabi/9.2.1/../../../arm-none-eabi/lib/thumb/v7-m/nofp/libc.a(lib_a-strlen-stub.o)
 .debug_ranges  0x00000000000015d8      0x190 /usr/lib/gcc/arm-none-eabi/9.2.1/../../../arm-none-eabi/lib/thumb/v7-m/nofp/libc.a(lib_a-vfprintf.o)
 .debug_ranges  0x0000000000001768       0x20 /usr/lib/gcc/arm-none-eabi/9.2.1/../../../arm-none-eabi/lib/thumb/v7-m/nofp/libc.a(lib_a-wbuf.o)
 .debug_ranges  0x0000000000001788       0x30 /usr/lib/gcc/arm-none-eabi/9.2.1/../../../arm-none-eabi/lib/thumb/v7-m/nofp/libc.a(lib_a-wsetup.o)
 .debug_ranges  0x00000000000017b8       0x40 /usr/lib/gcc/arm-none-eabi/9.2.1/../../../arm-none-eabi/lib/thumb/v7-m/nofp/libc.a(lib_a-dtoa.o)
 .debug_ranges  0x00000000000017f8       0x30 /usr/lib/gcc/arm-none-eabi/9.2.1/../../../arm-none-eabi/lib/thumb/v7-m/nofp/libc.a(lib_a-fclose.o)
 .debug_ranges  0x0000000000001828       0x18 /usr/lib/gcc/arm-none-eabi/9.2.1/../../../arm-none-eabi/lib/thumb/v7-m/nofp/libc.a(lib_a-makebuf.o)
 .debug_ranges  0x0000000000001840      0x138 /usr/lib/gcc/arm-none-eabi/9.2.1/../../../arm-none-eabi/lib/thumb/v7-m/nofp/libc.a(lib_a-mprec.o)
 .debug_ranges  0x0000000000001978      0x1b8 /usr/lib/gcc/arm-none-eabi/9.2.1/../../../arm-none-eabi/lib/thumb/v7-m/nofp/libc.a(lib_a-vfiprintf.o)
 .debug_ranges  0x0000000000001b30       0x48 /usr/lib/gcc/arm-none-eabi/9.2.1/../../../arm-none-eabi/lib/thumb/v7-m/nofp/libc.a(lib_a-callocr.o)
 .debug_ranges  0x0000000000001b78       0x50 /usr/lib/gcc/arm-none-eabi/9.2.1/../../../arm-none-eabi/lib/thumb/v7-m/nofp/libc.a(lib_a-fputwc.o)
 .debug_ranges  0x0000000000001bc8       0x10 /usr/lib/gcc/arm-none-eabi/9.2.1/../../../arm-none-eabi/lib/thumb/v7-m/nofp/libc.a(lib_a-wcrtomb.o)
 .debug_ranges  0x0000000000001bd8       0xf0 /usr/lib/gcc/arm-none-eabi/9.2.1/thumb/v7-m/nofp/libgcc.a(_udivmoddi4.o)

.debug_line     0x0000000000000000    0x15e5c
 .debug_line    0x0000000000000000      0x79e console.o
 .debug_line    0x000000000000079e      0x46e console_stm32.o
 .debug_line    0x0000000000000c0c      0xb1f i2c_ctx.o
 .debug_line    0x000000000000172b      0x14b bitops.o
 .debug_line    0x0000000000001876      0x585 fibre.o
 .debug_line    0x0000000000001dfb       0xa4 fibre_default.o
 .debug_line    0x0000000000001e9f      0x3ab list.o
 .debug_line    0x000000000000224a      0x267 messageq.o
 .debug_line    0x00000000000024b1      0x210 regdump.o
 .debug_line    0x00000000000026c1      0x275 ringbuf.o
 .debug_line    0x0000000000002936      0x15a time_libopencm3.o
 .debug_line    0x0000000000002a90      0x207 util.o
 .debug_line    0x0000000000002c97      0x75c i2c-stm32f1-usb.o
 .debug_line    0x00000000000033f3      0x2f8 /home/maddocks/src/i2c-star-stm32f411ceu6-blackpill/libopencm3/lib/libopencm3_stm32f1.a(desig.o)
 .debug_line    0x00000000000036eb      0x264 /home/maddocks/src/i2c-star-stm32f411ceu6-blackpill/libopencm3/lib/libopencm3_stm32f1.a(gpio.o)
 .debug_line    0x000000000000394f      0x27a /home/maddocks/src/i2c-star-stm32f411ceu6-blackpill/libopencm3/lib/libopencm3_stm32f1.a(gpio_common_all.o)
 .debug_line    0x0000000000003bc9      0x6e8 /home/maddocks/src/i2c-star-stm32f411ceu6-blackpill/libopencm3/lib/libopencm3_stm32f1.a(i2c_common_v1.o)
 .debug_line    0x00000000000042b1      0xbaf /home/maddocks/src/i2c-star-stm32f411ceu6-blackpill/libopencm3/lib/libopencm3_stm32f1.a(rcc.o)
 .debug_line    0x0000000000004e60      0x2a4 /home/maddocks/src/i2c-star-stm32f411ceu6-blackpill/libopencm3/lib/libopencm3_stm32f1.a(rcc_common_all.o)
 .debug_line    0x0000000000005104      0x47d /home/maddocks/src/i2c-star-stm32f411ceu6-blackpill/libopencm3/lib/libopencm3_stm32f1.a(usart_common_all.o)
 .debug_line    0x0000000000005581      0x26f /home/maddocks/src/i2c-star-stm32f411ceu6-blackpill/libopencm3/lib/libopencm3_stm32f1.a(usart_common_f124.o)
 .debug_line    0x00000000000057f0      0x437 /home/maddocks/src/i2c-star-stm32f411ceu6-blackpill/libopencm3/lib/libopencm3_stm32f1.a(usb.o)
 .debug_line    0x0000000000005c27      0x653 /home/maddocks/src/i2c-star-stm32f411ceu6-blackpill/libopencm3/lib/libopencm3_stm32f1.a(usb_control.o)
 .debug_line    0x000000000000627a      0xb94 /home/maddocks/src/i2c-star-stm32f411ceu6-blackpill/libopencm3/lib/libopencm3_stm32f1.a(usb_standard.o)
 .debug_line    0x0000000000006e0e      0x310 /home/maddocks/src/i2c-star-stm32f411ceu6-blackpill/libopencm3/lib/libopencm3_stm32f1.a(st_usbfs_v1.o)
 .debug_line    0x000000000000711e      0x305 /home/maddocks/src/i2c-star-stm32f411ceu6-blackpill/libopencm3/lib/libopencm3_stm32f1.a(vector.o)
 .debug_line    0x0000000000007423      0x277 /home/maddocks/src/i2c-star-stm32f411ceu6-blackpill/libopencm3/lib/libopencm3_stm32f1.a(systick.o)
 .debug_line    0x000000000000769a      0x23e /home/maddocks/src/i2c-star-stm32f411ceu6-blackpill/libopencm3/lib/libopencm3_stm32f1.a(scb.o)
 .debug_line    0x00000000000078d8      0x29c /home/maddocks/src/i2c-star-stm32f411ceu6-blackpill/libopencm3/lib/libopencm3_stm32f1.a(nvic.o)
 .debug_line    0x0000000000007b74      0x22b /home/maddocks/src/i2c-star-stm32f411ceu6-blackpill/libopencm3/lib/libopencm3_stm32f1.a(flash_common_all.o)
 .debug_line    0x0000000000007d9f      0x701 /home/maddocks/src/i2c-star-stm32f411ceu6-blackpill/libopencm3/lib/libopencm3_stm32f1.a(st_usbfs_core.o)
 .debug_line    0x00000000000084a0      0x15f /usr/lib/gcc/arm-none-eabi/9.2.1/../../../arm-none-eabi/lib/thumb/v7-m/nofp/libc.a(lib_a-abort.o)
 .debug_line    0x00000000000085ff      0x154 /usr/lib/gcc/arm-none-eabi/9.2.1/../../../arm-none-eabi/lib/thumb/v7-m/nofp/libc.a(lib_a-ctype_.o)
 .debug_line    0x0000000000008753      0x108 /usr/lib/gcc/arm-none-eabi/9.2.1/../../../arm-none-eabi/lib/thumb/v7-m/nofp/libc.a(lib_a-errno.o)
 .debug_line    0x000000000000885b      0x427 /usr/lib/gcc/arm-none-eabi/9.2.1/../../../arm-none-eabi/lib/thumb/v7-m/nofp/libc.a(lib_a-fflush.o)
 .debug_line    0x0000000000008c82      0x52a /usr/lib/gcc/arm-none-eabi/9.2.1/../../../arm-none-eabi/lib/thumb/v7-m/nofp/libc.a(lib_a-findfp.o)
 .debug_line    0x00000000000091ac      0x199 /usr/lib/gcc/arm-none-eabi/9.2.1/../../../arm-none-eabi/lib/thumb/v7-m/nofp/libc.a(lib_a-fprintf.o)
 .debug_line    0x0000000000009345      0x24b /usr/lib/gcc/arm-none-eabi/9.2.1/../../../arm-none-eabi/lib/thumb/v7-m/nofp/libc.a(lib_a-fputc.o)
 .debug_line    0x0000000000009590      0x1fb /usr/lib/gcc/arm-none-eabi/9.2.1/../../../arm-none-eabi/lib/thumb/v7-m/nofp/libc.a(lib_a-fputs.o)
 .debug_line    0x000000000000978b      0x518 /usr/lib/gcc/arm-none-eabi/9.2.1/../../../arm-none-eabi/lib/thumb/v7-m/nofp/libc.a(lib_a-freer.o)
 .debug_line    0x0000000000009ca3      0x5fb /usr/lib/gcc/arm-none-eabi/9.2.1/../../../arm-none-eabi/lib/thumb/v7-m/nofp/libc.a(lib_a-fvwrite.o)
 .debug_line    0x000000000000a29e      0x26d /usr/lib/gcc/arm-none-eabi/9.2.1/../../../arm-none-eabi/lib/thumb/v7-m/nofp/libc.a(lib_a-fwalk.o)
 .debug_line    0x000000000000a50b       0xe3 /usr/lib/gcc/arm-none-eabi/9.2.1/../../../arm-none-eabi/lib/thumb/v7-m/nofp/libc.a(lib_a-impure.o)
 .debug_line    0x000000000000a5ee      0x88c /usr/lib/gcc/arm-none-eabi/9.2.1/../../../arm-none-eabi/lib/thumb/v7-m/nofp/libc.a(lib_a-mallocr.o)
 .debug_line    0x000000000000ae7a      0x20c /usr/lib/gcc/arm-none-eabi/9.2.1/../../../arm-none-eabi/lib/thumb/v7-m/nofp/libc.a(lib_a-memchr-stub.o)
 .debug_line    0x000000000000b086       0xc1 /usr/lib/gcc/arm-none-eabi/9.2.1/../../../arm-none-eabi/lib/thumb/v7-m/nofp/libc.a(lib_a-memcpy.o)
 .debug_line    0x000000000000b147      0x28c /usr/lib/gcc/arm-none-eabi/9.2.1/../../../arm-none-eabi/lib/thumb/v7-m/nofp/libc.a(lib_a-memmove.o)
 .debug_line    0x000000000000b3d3      0x26b /usr/lib/gcc/arm-none-eabi/9.2.1/../../../arm-none-eabi/lib/thumb/v7-m/nofp/libc.a(lib_a-memset.o)
 .debug_line    0x000000000000b63e      0x13d /usr/lib/gcc/arm-none-eabi/9.2.1/../../../arm-none-eabi/lib/thumb/v7-m/nofp/libc.a(lib_a-mlock.o)
 .debug_line    0x000000000000b77b      0x2de /usr/lib/gcc/arm-none-eabi/9.2.1/../../../arm-none-eabi/lib/thumb/v7-m/nofp/libc.a(lib_a-putc.o)
 .debug_line    0x000000000000ba59      0x21b /usr/lib/gcc/arm-none-eabi/9.2.1/../../../arm-none-eabi/lib/thumb/v7-m/nofp/libc.a(lib_a-puts.o)
 .debug_line    0x000000000000bc74      0x66d /usr/lib/gcc/arm-none-eabi/9.2.1/../../../arm-none-eabi/lib/thumb/v7-m/nofp/libc.a(lib_a-reallocr.o)
 .debug_line    0x000000000000c2e1      0x182 /usr/lib/gcc/arm-none-eabi/9.2.1/../../../arm-none-eabi/lib/thumb/v7-m/nofp/libc.a(lib_a-sbrkr.o)
 .debug_line    0x000000000000c463      0x3dc /usr/lib/gcc/arm-none-eabi/9.2.1/../../../arm-none-eabi/lib/thumb/v7-m/nofp/libc.a(lib_a-signal.o)
 .debug_line    0x000000000000c83f      0x1a3 /usr/lib/gcc/arm-none-eabi/9.2.1/../../../arm-none-eabi/lib/thumb/v7-m/nofp/libc.a(lib_a-signalr.o)
 .debug_line    0x000000000000c9e2      0x260 /usr/lib/gcc/arm-none-eabi/9.2.1/../../../arm-none-eabi/lib/thumb/v7-m/nofp/libc.a(lib_a-stdio.o)
 .debug_line    0x000000000000cc42      0x106 /usr/lib/gcc/arm-none-eabi/9.2.1/../../../arm-none-eabi/lib/thumb/v7-m/nofp/libc.a(lib_a-strcmp.o)
 .debug_line    0x000000000000cd48      0x14e /usr/lib/gcc/arm-none-eabi/9.2.1/../../../arm-none-eabi/lib/thumb/v7-m/nofp/libc.a(lib_a-strlen-stub.o)
 .debug_line    0x000000000000ce96     0x17a4 /usr/lib/gcc/arm-none-eabi/9.2.1/../../../arm-none-eabi/lib/thumb/v7-m/nofp/libc.a(lib_a-vfprintf.o)
 .debug_line    0x000000000000e63a      0x29e /usr/lib/gcc/arm-none-eabi/9.2.1/../../../arm-none-eabi/lib/thumb/v7-m/nofp/libc.a(lib_a-wbuf.o)
 .debug_line    0x000000000000e8d8      0x187 /usr/lib/gcc/arm-none-eabi/9.2.1/../../../arm-none-eabi/lib/thumb/v7-m/nofp/libc.a(lib_a-writer.o)
 .debug_line    0x000000000000ea5f      0x2c5 /usr/lib/gcc/arm-none-eabi/9.2.1/../../../arm-none-eabi/lib/thumb/v7-m/nofp/libc.a(lib_a-wsetup.o)
 .debug_line    0x000000000000ed24      0x182 /usr/lib/gcc/arm-none-eabi/9.2.1/../../../arm-none-eabi/lib/thumb/v7-m/nofp/libc.a(lib_a-closer.o)
 .debug_line    0x000000000000eea6     0x13bd /usr/lib/gcc/arm-none-eabi/9.2.1/../../../arm-none-eabi/lib/thumb/v7-m/nofp/libc.a(lib_a-dtoa.o)
 .debug_line    0x0000000000010263      0x23d /usr/lib/gcc/arm-none-eabi/9.2.1/../../../arm-none-eabi/lib/thumb/v7-m/nofp/libc.a(lib_a-fclose.o)
 .debug_line    0x00000000000104a0      0x1ca /usr/lib/gcc/arm-none-eabi/9.2.1/../../../arm-none-eabi/lib/thumb/v7-m/nofp/libc.a(lib_a-localeconv.o)
 .debug_line    0x000000000001066a      0x187 /usr/lib/gcc/arm-none-eabi/9.2.1/../../../arm-none-eabi/lib/thumb/v7-m/nofp/libc.a(lib_a-lseekr.o)
 .debug_line    0x00000000000107f1      0x376 /usr/lib/gcc/arm-none-eabi/9.2.1/../../../arm-none-eabi/lib/thumb/v7-m/nofp/libc.a(lib_a-makebuf.o)
 .debug_line    0x0000000000010b67     0x1451 /usr/lib/gcc/arm-none-eabi/9.2.1/../../../arm-none-eabi/lib/thumb/v7-m/nofp/libc.a(lib_a-mprec.o)
 .debug_line    0x0000000000011fb8      0x186 /usr/lib/gcc/arm-none-eabi/9.2.1/../../../arm-none-eabi/lib/thumb/v7-m/nofp/libc.a(lib_a-readr.o)
 .debug_line    0x000000000001213e      0x21b /usr/lib/gcc/arm-none-eabi/9.2.1/../../../arm-none-eabi/lib/thumb/v7-m/nofp/libc.a(lib_a-reent.o)
 .debug_line    0x0000000000012359     0x1196 /usr/lib/gcc/arm-none-eabi/9.2.1/../../../arm-none-eabi/lib/thumb/v7-m/nofp/libc.a(lib_a-vfiprintf.o)
 .debug_line    0x00000000000134ef      0x193 /usr/lib/gcc/arm-none-eabi/9.2.1/../../../arm-none-eabi/lib/thumb/v7-m/nofp/libc.a(lib_a-assert.o)
 .debug_line    0x0000000000013682      0x1bb /usr/lib/gcc/arm-none-eabi/9.2.1/../../../arm-none-eabi/lib/thumb/v7-m/nofp/libc.a(lib_a-callocr.o)
 .debug_line    0x000000000001383d      0x198 /usr/lib/gcc/arm-none-eabi/9.2.1/../../../arm-none-eabi/lib/thumb/v7-m/nofp/libc.a(lib_a-fiprintf.o)
 .debug_line    0x00000000000139d5      0x2f0 /usr/lib/gcc/arm-none-eabi/9.2.1/../../../arm-none-eabi/lib/thumb/v7-m/nofp/libc.a(lib_a-fputwc.o)
 .debug_line    0x0000000000013cc5      0x212 /usr/lib/gcc/arm-none-eabi/9.2.1/../../../arm-none-eabi/lib/thumb/v7-m/nofp/libc.a(lib_a-fstatr.o)
 .debug_line    0x0000000000013ed7      0x183 /usr/lib/gcc/arm-none-eabi/9.2.1/../../../arm-none-eabi/lib/thumb/v7-m/nofp/libc.a(lib_a-isattyr.o)
 .debug_line    0x000000000001405a      0x252 /usr/lib/gcc/arm-none-eabi/9.2.1/../../../arm-none-eabi/lib/thumb/v7-m/nofp/libc.a(lib_a-locale.o)
 .debug_line    0x00000000000142ac      0x228 /usr/lib/gcc/arm-none-eabi/9.2.1/../../../arm-none-eabi/lib/thumb/v7-m/nofp/libc.a(lib_a-mbtowc_r.o)
 .debug_line    0x00000000000144d4      0x2b4 /usr/lib/gcc/arm-none-eabi/9.2.1/../../../arm-none-eabi/lib/thumb/v7-m/nofp/libc.a(lib_a-wcrtomb.o)
 .debug_line    0x0000000000014788      0x212 /usr/lib/gcc/arm-none-eabi/9.2.1/../../../arm-none-eabi/lib/thumb/v7-m/nofp/libc.a(lib_a-wctomb_r.o)
 .debug_line    0x000000000001499a      0x186 /usr/lib/gcc/arm-none-eabi/9.2.1/thumb/v7-m/nofp/libgcc.a(_arm_addsubdf3.o)
 .debug_line    0x0000000000014b20      0x19b /usr/lib/gcc/arm-none-eabi/9.2.1/thumb/v7-m/nofp/libgcc.a(_arm_muldivdf3.o)
 .debug_line    0x0000000000014cbb       0xbd /usr/lib/gcc/arm-none-eabi/9.2.1/thumb/v7-m/nofp/libgcc.a(_arm_cmpdf2.o)
 .debug_line    0x0000000000014d78       0x6e /usr/lib/gcc/arm-none-eabi/9.2.1/thumb/v7-m/nofp/libgcc.a(_arm_unorddf2.o)
 .debug_line    0x0000000000014de6       0x79 /usr/lib/gcc/arm-none-eabi/9.2.1/thumb/v7-m/nofp/libgcc.a(_arm_fixdfsi.o)
 .debug_line    0x0000000000014e5f       0x60 /usr/lib/gcc/arm-none-eabi/9.2.1/thumb/v7-m/nofp/libgcc.a(_aeabi_uldivmod.o)
 .debug_line    0x0000000000014ebf      0x620 /usr/lib/gcc/arm-none-eabi/9.2.1/thumb/v7-m/nofp/libgcc.a(_udivmoddi4.o)
 .debug_line    0x00000000000154df       0x60 /usr/lib/gcc/arm-none-eabi/9.2.1/thumb/v7-m/nofp/libgcc.a(_dvmd_tls.o)
 .debug_line    0x000000000001553f      0x110 /usr/lib/gcc/arm-none-eabi/9.2.1/../../../arm-none-eabi/lib/thumb/v7-m/nofp/libnosys.a(close.o)
 .debug_line    0x000000000001564f      0x1d4 /usr/lib/gcc/arm-none-eabi/9.2.1/../../../arm-none-eabi/lib/thumb/v7-m/nofp/libnosys.a(fstat.o)
 .debug_line    0x0000000000015823      0x111 /usr/lib/gcc/arm-none-eabi/9.2.1/../../../arm-none-eabi/lib/thumb/v7-m/nofp/libnosys.a(getpid.o)
 .debug_line    0x0000000000015934      0x111 /usr/lib/gcc/arm-none-eabi/9.2.1/../../../arm-none-eabi/lib/thumb/v7-m/nofp/libnosys.a(isatty.o)
 .debug_line    0x0000000000015a45      0x10f /usr/lib/gcc/arm-none-eabi/9.2.1/../../../arm-none-eabi/lib/thumb/v7-m/nofp/libnosys.a(kill.o)
 .debug_line    0x0000000000015b54      0x111 /usr/lib/gcc/arm-none-eabi/9.2.1/../../../arm-none-eabi/lib/thumb/v7-m/nofp/libnosys.a(lseek.o)
 .debug_line    0x0000000000015c65      0x110 /usr/lib/gcc/arm-none-eabi/9.2.1/../../../arm-none-eabi/lib/thumb/v7-m/nofp/libnosys.a(read.o)
 .debug_line    0x0000000000015d75       0x79 /usr/lib/gcc/arm-none-eabi/9.2.1/../../../arm-none-eabi/lib/thumb/v7-m/nofp/libnosys.a(sbrk.o)
 .debug_line    0x0000000000015dee       0x6e /usr/lib/gcc/arm-none-eabi/9.2.1/../../../arm-none-eabi/lib/thumb/v7-m/nofp/libnosys.a(_exit.o)

.debug_str      0x0000000000000000    0x19c6f
 .debug_str     0x0000000000000000      0x74e console.o
                                        0x8ec (size before relaxing)
 .debug_str     0x000000000000074e      0x39f console_stm32.o
                                        0xac5 (size before relaxing)
 .debug_str     0x0000000000000aed      0x45e i2c_ctx.o
                                        0xaf3 (size before relaxing)
 .debug_str     0x0000000000000f4b       0x2a bitops.o
                                        0x1d2 (size before relaxing)
 .debug_str     0x0000000000000f75      0x3b9 fibre.o
                                        0xa6e (size before relaxing)
 .debug_str     0x000000000000132e       0x3e fibre_default.o
                                        0x21f (size before relaxing)
 .debug_str     0x000000000000136c       0x7a list.o
                                        0x6c9 (size before relaxing)
 .debug_str     0x00000000000013e6       0x8a messageq.o
                                        0x725 (size before relaxing)
 .debug_str     0x0000000000001470       0x37 regdump.o
                                        0x628 (size before relaxing)
 .debug_str     0x00000000000014a7       0xc5 ringbuf.o
                                        0x706 (size before relaxing)
 .debug_str     0x000000000000156c       0xcc time_libopencm3.o
                                        0x27d (size before relaxing)
 .debug_str     0x0000000000001638       0x7c util.o
                                        0x678 (size before relaxing)
 .debug_str     0x00000000000016b4      0x589 i2c-stm32f1-usb.o
                                       0x10dd (size before relaxing)
 .debug_str     0x0000000000001c3d     0x48d8 /home/maddocks/src/i2c-star-stm32f411ceu6-blackpill/libopencm3/lib/libopencm3_stm32f1.a(desig.o)
                                       0x4a9e (size before relaxing)
 .debug_str     0x0000000000006515     0x3822 /home/maddocks/src/i2c-star-stm32f411ceu6-blackpill/libopencm3/lib/libopencm3_stm32f1.a(gpio.o)
                                       0x81d9 (size before relaxing)
 .debug_str     0x0000000000009d37       0x6f /home/maddocks/src/i2c-star-stm32f411ceu6-blackpill/libopencm3/lib/libopencm3_stm32f1.a(gpio_common_all.o)
                                       0x81d7 (size before relaxing)
 .debug_str     0x0000000000009da6     0x34de /home/maddocks/src/i2c-star-stm32f411ceu6-blackpill/libopencm3/lib/libopencm3_stm32f1.a(i2c_common_v1.o)
                                       0x8217 (size before relaxing)
 .debug_str     0x000000000000d284      0xc86 /home/maddocks/src/i2c-star-stm32f411ceu6-blackpill/libopencm3/lib/libopencm3_stm32f1.a(rcc.o)
                                       0x7ae1 (size before relaxing)
 .debug_str     0x000000000000df0a      0x168 /home/maddocks/src/i2c-star-stm32f411ceu6-blackpill/libopencm3/lib/libopencm3_stm32f1.a(rcc_common_all.o)
                                       0x73f7 (size before relaxing)
 .debug_str     0x000000000000e072     0x10f0 /home/maddocks/src/i2c-star-stm32f411ceu6-blackpill/libopencm3/lib/libopencm3_stm32f1.a(usart_common_all.o)
                                       0x7fab (size before relaxing)
 .debug_str     0x000000000000f162       0x2d /home/maddocks/src/i2c-star-stm32f411ceu6-blackpill/libopencm3/lib/libopencm3_stm32f1.a(usart_common_f124.o)
                                       0x7de5 (size before relaxing)
 .debug_str     0x000000000000f18f     0x3588 /home/maddocks/src/i2c-star-stm32f411ceu6-blackpill/libopencm3/lib/libopencm3_stm32f1.a(usb.o)
                                       0x7dcc (size before relaxing)
 .debug_str     0x0000000000012717      0x19b /home/maddocks/src/i2c-star-stm32f411ceu6-blackpill/libopencm3/lib/libopencm3_stm32f1.a(usb_control.o)
                                       0x7e19 (size before relaxing)
 .debug_str     0x00000000000128b2      0x2ad /home/maddocks/src/i2c-star-stm32f411ceu6-blackpill/libopencm3/lib/libopencm3_stm32f1.a(usb_standard.o)
                                       0x7f4c (size before relaxing)
 .debug_str     0x0000000000012b5f     0x1594 /home/maddocks/src/i2c-star-stm32f411ceu6-blackpill/libopencm3/lib/libopencm3_stm32f1.a(st_usbfs_v1.o)
                                       0x9506 (size before relaxing)
 .debug_str     0x00000000000140f3     0x2485 /home/maddocks/src/i2c-star-stm32f411ceu6-blackpill/libopencm3/lib/libopencm3_stm32f1.a(vector.o)
                                       0x62b7 (size before relaxing)
 .debug_str     0x0000000000016578      0x2e5 /home/maddocks/src/i2c-star-stm32f411ceu6-blackpill/libopencm3/lib/libopencm3_stm32f1.a(systick.o)
                                       0x418c (size before relaxing)
 .debug_str     0x000000000001685d       0x42 /home/maddocks/src/i2c-star-stm32f411ceu6-blackpill/libopencm3/lib/libopencm3_stm32f1.a(scb.o)
                                       0x8158 (size before relaxing)
 .debug_str     0x000000000001689f       0xc4 /home/maddocks/src/i2c-star-stm32f411ceu6-blackpill/libopencm3/lib/libopencm3_stm32f1.a(nvic.o)
                                       0x5884 (size before relaxing)
 .debug_str     0x0000000000016963       0x64 /home/maddocks/src/i2c-star-stm32f411ceu6-blackpill/libopencm3/lib/libopencm3_stm32f1.a(flash_common_all.o)
                                       0x51ba (size before relaxing)
 .debug_str     0x00000000000169c7      0x119 /home/maddocks/src/i2c-star-stm32f411ceu6-blackpill/libopencm3/lib/libopencm3_stm32f1.a(st_usbfs_core.o)
                                       0x9422 (size before relaxing)
 .debug_str     0x0000000000016ae0      0x14b /usr/lib/gcc/arm-none-eabi/9.2.1/../../../arm-none-eabi/lib/thumb/v7-m/nofp/libc.a(lib_a-abort.o)
                                        0x5d6 (size before relaxing)
 .debug_str     0x0000000000016c2b      0x2d5 /usr/lib/gcc/arm-none-eabi/9.2.1/../../../arm-none-eabi/lib/thumb/v7-m/nofp/libc.a(lib_a-ctype_.o)
                                        0x8b0 (size before relaxing)
 .debug_str     0x0000000000016f00       0x8a /usr/lib/gcc/arm-none-eabi/9.2.1/../../../arm-none-eabi/lib/thumb/v7-m/nofp/libc.a(lib_a-errno.o)
                                        0x5aa (size before relaxing)
 .debug_str     0x0000000000016f8a      0x1d8 /usr/lib/gcc/arm-none-eabi/9.2.1/../../../arm-none-eabi/lib/thumb/v7-m/nofp/libc.a(lib_a-fflush.o)
                                        0x74a (size before relaxing)
 .debug_str     0x0000000000017162      0x175 /usr/lib/gcc/arm-none-eabi/9.2.1/../../../arm-none-eabi/lib/thumb/v7-m/nofp/libc.a(lib_a-findfp.o)
                                        0x85a (size before relaxing)
 .debug_str     0x00000000000172d7       0x69 /usr/lib/gcc/arm-none-eabi/9.2.1/../../../arm-none-eabi/lib/thumb/v7-m/nofp/libc.a(lib_a-fprintf.o)
                                        0x5d7 (size before relaxing)
 .debug_str     0x0000000000017340       0x43 /usr/lib/gcc/arm-none-eabi/9.2.1/../../../arm-none-eabi/lib/thumb/v7-m/nofp/libc.a(lib_a-fputc.o)
                                        0x70c (size before relaxing)
 .debug_str     0x0000000000017383       0x84 /usr/lib/gcc/arm-none-eabi/9.2.1/../../../arm-none-eabi/lib/thumb/v7-m/nofp/libc.a(lib_a-fputs.o)
                                        0x750 (size before relaxing)
 .debug_str     0x0000000000017407      0x19b /usr/lib/gcc/arm-none-eabi/9.2.1/../../../arm-none-eabi/lib/thumb/v7-m/nofp/libc.a(lib_a-freer.o)
                                        0x779 (size before relaxing)
 .debug_str     0x00000000000175a2       0x78 /usr/lib/gcc/arm-none-eabi/9.2.1/../../../arm-none-eabi/lib/thumb/v7-m/nofp/libc.a(lib_a-fvwrite.o)
                                        0x79b (size before relaxing)
 .debug_str     0x000000000001761a       0x41 /usr/lib/gcc/arm-none-eabi/9.2.1/../../../arm-none-eabi/lib/thumb/v7-m/nofp/libc.a(lib_a-fwalk.o)
                                        0x70e (size before relaxing)
 .debug_str     0x000000000001765b       0x97 /usr/lib/gcc/arm-none-eabi/9.2.1/../../../arm-none-eabi/lib/thumb/v7-m/nofp/libc.a(lib_a-impure.o)
                                        0x598 (size before relaxing)
 .debug_str     0x00000000000176f2       0xb0 /usr/lib/gcc/arm-none-eabi/9.2.1/../../../arm-none-eabi/lib/thumb/v7-m/nofp/libc.a(lib_a-mallocr.o)
                                        0x800 (size before relaxing)
 .debug_str     0x00000000000177a2       0xb4 /usr/lib/gcc/arm-none-eabi/9.2.1/../../../arm-none-eabi/lib/thumb/v7-m/nofp/libc.a(lib_a-memchr-stub.o)
                                        0x5c8 (size before relaxing)
 .debug_str     0x0000000000017856       0x4f /usr/lib/gcc/arm-none-eabi/9.2.1/../../../arm-none-eabi/lib/thumb/v7-m/nofp/libc.a(lib_a-memcpy.o)
                                         0xad (size before relaxing)
 .debug_str     0x00000000000178a5       0xaf /usr/lib/gcc/arm-none-eabi/9.2.1/../../../arm-none-eabi/lib/thumb/v7-m/nofp/libc.a(lib_a-memmove.o)
                                        0x8e4 (size before relaxing)
 .debug_str     0x0000000000017954       0x41 /usr/lib/gcc/arm-none-eabi/9.2.1/../../../arm-none-eabi/lib/thumb/v7-m/nofp/libc.a(lib_a-memset.o)
                                        0x8c5 (size before relaxing)
 .debug_str     0x0000000000017995       0x4c /usr/lib/gcc/arm-none-eabi/9.2.1/../../../arm-none-eabi/lib/thumb/v7-m/nofp/libc.a(lib_a-mlock.o)
                                        0x5c4 (size before relaxing)
 .debug_str     0x00000000000179e1       0x45 /usr/lib/gcc/arm-none-eabi/9.2.1/../../../arm-none-eabi/lib/thumb/v7-m/nofp/libc.a(lib_a-putc.o)
                                        0x715 (size before relaxing)
 .debug_str     0x0000000000017a26       0x39 /usr/lib/gcc/arm-none-eabi/9.2.1/../../../arm-none-eabi/lib/thumb/v7-m/nofp/libc.a(lib_a-puts.o)
                                        0x74d (size before relaxing)
 .debug_str     0x0000000000017a5f       0x49 /usr/lib/gcc/arm-none-eabi/9.2.1/../../../arm-none-eabi/lib/thumb/v7-m/nofp/libc.a(lib_a-reallocr.o)
                                        0x7b7 (size before relaxing)
 .debug_str     0x0000000000017aa8       0x3d /usr/lib/gcc/arm-none-eabi/9.2.1/../../../arm-none-eabi/lib/thumb/v7-m/nofp/libc.a(lib_a-sbrkr.o)
                                        0x5db (size before relaxing)
 .debug_str     0x0000000000017ae5       0xf3 /usr/lib/gcc/arm-none-eabi/9.2.1/../../../arm-none-eabi/lib/thumb/v7-m/nofp/libc.a(lib_a-signal.o)
                                        0x63b (size before relaxing)
 .debug_str     0x0000000000017bd8       0x3c /usr/lib/gcc/arm-none-eabi/9.2.1/../../../arm-none-eabi/lib/thumb/v7-m/nofp/libc.a(lib_a-signalr.o)
                                        0x5e0 (size before relaxing)
 .debug_str     0x0000000000017c14       0x92 /usr/lib/gcc/arm-none-eabi/9.2.1/../../../arm-none-eabi/lib/thumb/v7-m/nofp/libc.a(lib_a-stdio.o)
                                        0x762 (size before relaxing)
 .debug_str     0x0000000000017ca6       0x43 /usr/lib/gcc/arm-none-eabi/9.2.1/../../../arm-none-eabi/lib/thumb/v7-m/nofp/libc.a(lib_a-strcmp.o)
                                         0xad (size before relaxing)
 .debug_str     0x0000000000017ce9       0x41 /usr/lib/gcc/arm-none-eabi/9.2.1/../../../arm-none-eabi/lib/thumb/v7-m/nofp/libc.a(lib_a-strlen-stub.o)
                                        0x5ae (size before relaxing)
 .debug_str     0x0000000000017d2a      0x1dd /usr/lib/gcc/arm-none-eabi/9.2.1/../../../arm-none-eabi/lib/thumb/v7-m/nofp/libc.a(lib_a-vfprintf.o)
                                        0xcaa (size before relaxing)
 .debug_str     0x0000000000017f07       0x39 /usr/lib/gcc/arm-none-eabi/9.2.1/../../../arm-none-eabi/lib/thumb/v7-m/nofp/libc.a(lib_a-wbuf.o)
                                        0x721 (size before relaxing)
 .debug_str     0x0000000000017f40       0x33 /usr/lib/gcc/arm-none-eabi/9.2.1/../../../arm-none-eabi/lib/thumb/v7-m/nofp/libc.a(lib_a-writer.o)
                                        0x5d8 (size before relaxing)
 .debug_str     0x0000000000017f73       0x40 /usr/lib/gcc/arm-none-eabi/9.2.1/../../../arm-none-eabi/lib/thumb/v7-m/nofp/libc.a(lib_a-wsetup.o)
                                        0x71c (size before relaxing)
 .debug_str     0x0000000000017fb3       0x33 /usr/lib/gcc/arm-none-eabi/9.2.1/../../../arm-none-eabi/lib/thumb/v7-m/nofp/libc.a(lib_a-closer.o)
                                        0x5c8 (size before relaxing)
 .debug_str     0x0000000000017fe6      0x178 /usr/lib/gcc/arm-none-eabi/9.2.1/../../../arm-none-eabi/lib/thumb/v7-m/nofp/libc.a(lib_a-dtoa.o)
                                        0xa95 (size before relaxing)
 .debug_str     0x000000000001815e       0x44 /usr/lib/gcc/arm-none-eabi/9.2.1/../../../arm-none-eabi/lib/thumb/v7-m/nofp/libc.a(lib_a-fclose.o)
                                        0x733 (size before relaxing)
 .debug_str     0x00000000000181a2       0xf3 /usr/lib/gcc/arm-none-eabi/9.2.1/../../../arm-none-eabi/lib/thumb/v7-m/nofp/libc.a(lib_a-localeconv.o)
                                        0x92a (size before relaxing)
 .debug_str     0x0000000000018295       0x3a /usr/lib/gcc/arm-none-eabi/9.2.1/../../../arm-none-eabi/lib/thumb/v7-m/nofp/libc.a(lib_a-lseekr.o)
                                        0x5d6 (size before relaxing)
 .debug_str     0x00000000000182cf      0x141 /usr/lib/gcc/arm-none-eabi/9.2.1/../../../arm-none-eabi/lib/thumb/v7-m/nofp/libc.a(lib_a-makebuf.o)
                                        0x88f (size before relaxing)
 .debug_str     0x0000000000018410       0x8d /usr/lib/gcc/arm-none-eabi/9.2.1/../../../arm-none-eabi/lib/thumb/v7-m/nofp/libc.a(lib_a-mprec.o)
                                        0xa3e (size before relaxing)
 .debug_str     0x000000000001849d       0x32 /usr/lib/gcc/arm-none-eabi/9.2.1/../../../arm-none-eabi/lib/thumb/v7-m/nofp/libc.a(lib_a-readr.o)
                                        0x5d6 (size before relaxing)
 .debug_str     0x00000000000184cf       0x5e /usr/lib/gcc/arm-none-eabi/9.2.1/../../../arm-none-eabi/lib/thumb/v7-m/nofp/libc.a(lib_a-reent.o)
                                        0x5d4 (size before relaxing)
 .debug_str     0x000000000001852d       0x21 /usr/lib/gcc/arm-none-eabi/9.2.1/../../../arm-none-eabi/lib/thumb/v7-m/nofp/libc.a(lib_a-vfiprintf.o)
                                        0xc12 (size before relaxing)
 .debug_str     0x000000000001854e       0x4d /usr/lib/gcc/arm-none-eabi/9.2.1/../../../arm-none-eabi/lib/thumb/v7-m/nofp/libc.a(lib_a-assert.o)
                                        0x5d8 (size before relaxing)
 .debug_str     0x000000000001859b        0xf /usr/lib/gcc/arm-none-eabi/9.2.1/../../../arm-none-eabi/lib/thumb/v7-m/nofp/libc.a(lib_a-callocr.o)
                                        0x724 (size before relaxing)
 .debug_str     0x00000000000185aa       0x41 /usr/lib/gcc/arm-none-eabi/9.2.1/../../../arm-none-eabi/lib/thumb/v7-m/nofp/libc.a(lib_a-fiprintf.o)
                                        0x5db (size before relaxing)
 .debug_str     0x00000000000185eb       0x5b /usr/lib/gcc/arm-none-eabi/9.2.1/../../../arm-none-eabi/lib/thumb/v7-m/nofp/libc.a(lib_a-fputwc.o)
                                        0x762 (size before relaxing)
 .debug_str     0x0000000000018646       0x40 /usr/lib/gcc/arm-none-eabi/9.2.1/../../../arm-none-eabi/lib/thumb/v7-m/nofp/libc.a(lib_a-fstatr.o)
                                        0x736 (size before relaxing)
 .debug_str     0x0000000000018686       0x3c /usr/lib/gcc/arm-none-eabi/9.2.1/../../../arm-none-eabi/lib/thumb/v7-m/nofp/libc.a(lib_a-isattyr.o)
                                        0x5d2 (size before relaxing)
 .debug_str     0x00000000000186c2       0x60 /usr/lib/gcc/arm-none-eabi/9.2.1/../../../arm-none-eabi/lib/thumb/v7-m/nofp/libc.a(lib_a-locale.o)
                                        0x96a (size before relaxing)
 .debug_str     0x0000000000018722       0x55 /usr/lib/gcc/arm-none-eabi/9.2.1/../../../arm-none-eabi/lib/thumb/v7-m/nofp/libc.a(lib_a-mbtowc_r.o)
                                        0x93b (size before relaxing)
 .debug_str     0x0000000000018777       0x44 /usr/lib/gcc/arm-none-eabi/9.2.1/../../../arm-none-eabi/lib/thumb/v7-m/nofp/libc.a(lib_a-wcrtomb.o)
                                        0x935 (size before relaxing)
 .debug_str     0x00000000000187bb       0x56 /usr/lib/gcc/arm-none-eabi/9.2.1/../../../arm-none-eabi/lib/thumb/v7-m/nofp/libc.a(lib_a-wctomb_r.o)
                                        0x942 (size before relaxing)
 .debug_str     0x0000000000018811       0x98 /usr/lib/gcc/arm-none-eabi/9.2.1/thumb/v7-m/nofp/libgcc.a(_arm_addsubdf3.o)
                                         0xa4 (size before relaxing)
 .debug_str     0x00000000000188a9       0xa4 /usr/lib/gcc/arm-none-eabi/9.2.1/thumb/v7-m/nofp/libgcc.a(_arm_muldivdf3.o)
 .debug_str     0x00000000000188a9       0xa4 /usr/lib/gcc/arm-none-eabi/9.2.1/thumb/v7-m/nofp/libgcc.a(_arm_cmpdf2.o)
 .debug_str     0x00000000000188a9       0xa4 /usr/lib/gcc/arm-none-eabi/9.2.1/thumb/v7-m/nofp/libgcc.a(_arm_unorddf2.o)
 .debug_str     0x00000000000188a9       0xa4 /usr/lib/gcc/arm-none-eabi/9.2.1/thumb/v7-m/nofp/libgcc.a(_arm_fixdfsi.o)
 .debug_str     0x00000000000188a9       0x2c /usr/lib/gcc/arm-none-eabi/9.2.1/thumb/v7-m/nofp/libgcc.a(_aeabi_uldivmod.o)
                                         0x9f (size before relaxing)
 .debug_str     0x00000000000188d5     0x10dd /usr/lib/gcc/arm-none-eabi/9.2.1/thumb/v7-m/nofp/libgcc.a(_udivmoddi4.o)
                                       0x11de (size before relaxing)
 .debug_str     0x00000000000199b2       0x30 /usr/lib/gcc/arm-none-eabi/9.2.1/thumb/v7-m/nofp/libgcc.a(_dvmd_tls.o)
                                         0xa3 (size before relaxing)
 .debug_str     0x00000000000199e2      0x108 /usr/lib/gcc/arm-none-eabi/9.2.1/../../../arm-none-eabi/lib/thumb/v7-m/nofp/libnosys.a(close.o)
                                        0x599 (size before relaxing)
 .debug_str     0x0000000000019aea       0x2f /usr/lib/gcc/arm-none-eabi/9.2.1/../../../arm-none-eabi/lib/thumb/v7-m/nofp/libnosys.a(fstat.o)
                                        0x701 (size before relaxing)
 .debug_str     0x0000000000019b19       0x30 /usr/lib/gcc/arm-none-eabi/9.2.1/../../../arm-none-eabi/lib/thumb/v7-m/nofp/libnosys.a(getpid.o)
                                        0x59b (size before relaxing)
 .debug_str     0x0000000000019b49       0x30 /usr/lib/gcc/arm-none-eabi/9.2.1/../../../arm-none-eabi/lib/thumb/v7-m/nofp/libnosys.a(isatty.o)
                                        0x5a0 (size before relaxing)
 .debug_str     0x0000000000019b79       0x2e /usr/lib/gcc/arm-none-eabi/9.2.1/../../../arm-none-eabi/lib/thumb/v7-m/nofp/libnosys.a(kill.o)
                                        0x597 (size before relaxing)
 .debug_str     0x0000000000019ba7       0x2f /usr/lib/gcc/arm-none-eabi/9.2.1/../../../arm-none-eabi/lib/thumb/v7-m/nofp/libnosys.a(lseek.o)
                                        0x59e (size before relaxing)
 .debug_str     0x0000000000019bd6       0x2e /usr/lib/gcc/arm-none-eabi/9.2.1/../../../arm-none-eabi/lib/thumb/v7-m/nofp/libnosys.a(read.o)
                                        0x596 (size before relaxing)
 .debug_str     0x0000000000019c04       0x3c /usr/lib/gcc/arm-none-eabi/9.2.1/../../../arm-none-eabi/lib/thumb/v7-m/nofp/libnosys.a(sbrk.o)
                                        0x127 (size before relaxing)
 .debug_str     0x0000000000019c40       0x2f /usr/lib/gcc/arm-none-eabi/9.2.1/../../../arm-none-eabi/lib/thumb/v7-m/nofp/libnosys.a(_exit.o)
                                        0x197 (size before relaxing)

.comment        0x0000000000000000       0xa7
 .comment       0x0000000000000000       0x59 console.o
                                         0x5a (size before relaxing)
 .comment       0x0000000000000059       0x5a console_stm32.o
 .comment       0x0000000000000059       0x5a i2c_ctx.o
 .comment       0x0000000000000059       0x5a bitops.o
 .comment       0x0000000000000059       0x5a fibre.o
 .comment       0x0000000000000059       0x5a fibre_default.o
 .comment       0x0000000000000059       0x5a list.o
 .comment       0x0000000000000059       0x5a messageq.o
 .comment       0x0000000000000059       0x5a regdump.o
 .comment       0x0000000000000059       0x5a ringbuf.o
 .comment       0x0000000000000059       0x5a time_libopencm3.o
 .comment       0x0000000000000059       0x5a util.o
 .comment       0x0000000000000059       0x5a i2c-stm32f1-usb.o
 .comment       0x0000000000000059       0x5a /home/maddocks/src/i2c-star-stm32f411ceu6-blackpill/libopencm3/lib/libopencm3_stm32f1.a(desig.o)
 .comment       0x0000000000000059       0x5a /home/maddocks/src/i2c-star-stm32f411ceu6-blackpill/libopencm3/lib/libopencm3_stm32f1.a(gpio.o)
 .comment       0x0000000000000059       0x5a /home/maddocks/src/i2c-star-stm32f411ceu6-blackpill/libopencm3/lib/libopencm3_stm32f1.a(gpio_common_all.o)
 .comment       0x0000000000000059       0x5a /home/maddocks/src/i2c-star-stm32f411ceu6-blackpill/libopencm3/lib/libopencm3_stm32f1.a(i2c_common_v1.o)
 .comment       0x0000000000000059       0x5a /home/maddocks/src/i2c-star-stm32f411ceu6-blackpill/libopencm3/lib/libopencm3_stm32f1.a(rcc.o)
 .comment       0x0000000000000059       0x5a /home/maddocks/src/i2c-star-stm32f411ceu6-blackpill/libopencm3/lib/libopencm3_stm32f1.a(rcc_common_all.o)
 .comment       0x0000000000000059       0x5a /home/maddocks/src/i2c-star-stm32f411ceu6-blackpill/libopencm3/lib/libopencm3_stm32f1.a(usart_common_all.o)
 .comment       0x0000000000000059       0x5a /home/maddocks/src/i2c-star-stm32f411ceu6-blackpill/libopencm3/lib/libopencm3_stm32f1.a(usart_common_f124.o)
 .comment       0x0000000000000059       0x5a /home/maddocks/src/i2c-star-stm32f411ceu6-blackpill/libopencm3/lib/libopencm3_stm32f1.a(usb.o)
 .comment       0x0000000000000059       0x5a /home/maddocks/src/i2c-star-stm32f411ceu6-blackpill/libopencm3/lib/libopencm3_stm32f1.a(usb_control.o)
 .comment       0x0000000000000059       0x5a /home/maddocks/src/i2c-star-stm32f411ceu6-blackpill/libopencm3/lib/libopencm3_stm32f1.a(usb_standard.o)
 .comment       0x0000000000000059       0x5a /home/maddocks/src/i2c-star-stm32f411ceu6-blackpill/libopencm3/lib/libopencm3_stm32f1.a(st_usbfs_v1.o)
 .comment       0x0000000000000059       0x5a /home/maddocks/src/i2c-star-stm32f411ceu6-blackpill/libopencm3/lib/libopencm3_stm32f1.a(vector.o)
 .comment       0x0000000000000059       0x5a /home/maddocks/src/i2c-star-stm32f411ceu6-blackpill/libopencm3/lib/libopencm3_stm32f1.a(systick.o)
 .comment       0x0000000000000059       0x5a /home/maddocks/src/i2c-star-stm32f411ceu6-blackpill/libopencm3/lib/libopencm3_stm32f1.a(scb.o)
 .comment       0x0000000000000059       0x5a /home/maddocks/src/i2c-star-stm32f411ceu6-blackpill/libopencm3/lib/libopencm3_stm32f1.a(nvic.o)
 .comment       0x0000000000000059       0x5a /home/maddocks/src/i2c-star-stm32f411ceu6-blackpill/libopencm3/lib/libopencm3_stm32f1.a(flash_common_all.o)
 .comment       0x0000000000000059       0x5a /home/maddocks/src/i2c-star-stm32f411ceu6-blackpill/libopencm3/lib/libopencm3_stm32f1.a(st_usbfs_core.o)
 .comment       0x0000000000000059       0x4e /usr/lib/gcc/arm-none-eabi/9.2.1/../../../arm-none-eabi/lib/thumb/v7-m/nofp/libc.a(lib_a-abort.o)
                                         0x4f (size before relaxing)
 .comment       0x00000000000000a7       0x4f /usr/lib/gcc/arm-none-eabi/9.2.1/../../../arm-none-eabi/lib/thumb/v7-m/nofp/libc.a(lib_a-ctype_.o)
 .comment       0x00000000000000a7       0x4f /usr/lib/gcc/arm-none-eabi/9.2.1/../../../arm-none-eabi/lib/thumb/v7-m/nofp/libc.a(lib_a-errno.o)
 .comment       0x00000000000000a7       0x4f /usr/lib/gcc/arm-none-eabi/9.2.1/../../../arm-none-eabi/lib/thumb/v7-m/nofp/libc.a(lib_a-fflush.o)
 .comment       0x00000000000000a7       0x4f /usr/lib/gcc/arm-none-eabi/9.2.1/../../../arm-none-eabi/lib/thumb/v7-m/nofp/libc.a(lib_a-findfp.o)
 .comment       0x00000000000000a7       0x4f /usr/lib/gcc/arm-none-eabi/9.2.1/../../../arm-none-eabi/lib/thumb/v7-m/nofp/libc.a(lib_a-fprintf.o)
 .comment       0x00000000000000a7       0x4f /usr/lib/gcc/arm-none-eabi/9.2.1/../../../arm-none-eabi/lib/thumb/v7-m/nofp/libc.a(lib_a-fputc.o)
 .comment       0x00000000000000a7       0x4f /usr/lib/gcc/arm-none-eabi/9.2.1/../../../arm-none-eabi/lib/thumb/v7-m/nofp/libc.a(lib_a-fputs.o)
 .comment       0x00000000000000a7       0x4f /usr/lib/gcc/arm-none-eabi/9.2.1/../../../arm-none-eabi/lib/thumb/v7-m/nofp/libc.a(lib_a-freer.o)
 .comment       0x00000000000000a7       0x4f /usr/lib/gcc/arm-none-eabi/9.2.1/../../../arm-none-eabi/lib/thumb/v7-m/nofp/libc.a(lib_a-fvwrite.o)
 .comment       0x00000000000000a7       0x4f /usr/lib/gcc/arm-none-eabi/9.2.1/../../../arm-none-eabi/lib/thumb/v7-m/nofp/libc.a(lib_a-fwalk.o)
 .comment       0x00000000000000a7       0x4f /usr/lib/gcc/arm-none-eabi/9.2.1/../../../arm-none-eabi/lib/thumb/v7-m/nofp/libc.a(lib_a-impure.o)
 .comment       0x00000000000000a7       0x4f /usr/lib/gcc/arm-none-eabi/9.2.1/../../../arm-none-eabi/lib/thumb/v7-m/nofp/libc.a(lib_a-mallocr.o)
 .comment       0x00000000000000a7       0x4f /usr/lib/gcc/arm-none-eabi/9.2.1/../../../arm-none-eabi/lib/thumb/v7-m/nofp/libc.a(lib_a-memchr-stub.o)
 .comment       0x00000000000000a7       0x4f /usr/lib/gcc/arm-none-eabi/9.2.1/../../../arm-none-eabi/lib/thumb/v7-m/nofp/libc.a(lib_a-memmove.o)
 .comment       0x00000000000000a7       0x4f /usr/lib/gcc/arm-none-eabi/9.2.1/../../../arm-none-eabi/lib/thumb/v7-m/nofp/libc.a(lib_a-memset.o)
 .comment       0x00000000000000a7       0x4f /usr/lib/gcc/arm-none-eabi/9.2.1/../../../arm-none-eabi/lib/thumb/v7-m/nofp/libc.a(lib_a-mlock.o)
 .comment       0x00000000000000a7       0x4f /usr/lib/gcc/arm-none-eabi/9.2.1/../../../arm-none-eabi/lib/thumb/v7-m/nofp/libc.a(lib_a-putc.o)
 .comment       0x00000000000000a7       0x4f /usr/lib/gcc/arm-none-eabi/9.2.1/../../../arm-none-eabi/lib/thumb/v7-m/nofp/libc.a(lib_a-puts.o)
 .comment       0x00000000000000a7       0x4f /usr/lib/gcc/arm-none-eabi/9.2.1/../../../arm-none-eabi/lib/thumb/v7-m/nofp/libc.a(lib_a-reallocr.o)
 .comment       0x00000000000000a7       0x4f /usr/lib/gcc/arm-none-eabi/9.2.1/../../../arm-none-eabi/lib/thumb/v7-m/nofp/libc.a(lib_a-sbrkr.o)
 .comment       0x00000000000000a7       0x4f /usr/lib/gcc/arm-none-eabi/9.2.1/../../../arm-none-eabi/lib/thumb/v7-m/nofp/libc.a(lib_a-signal.o)
 .comment       0x00000000000000a7       0x4f /usr/lib/gcc/arm-none-eabi/9.2.1/../../../arm-none-eabi/lib/thumb/v7-m/nofp/libc.a(lib_a-signalr.o)
 .comment       0x00000000000000a7       0x4f /usr/lib/gcc/arm-none-eabi/9.2.1/../../../arm-none-eabi/lib/thumb/v7-m/nofp/libc.a(lib_a-stdio.o)
 .comment       0x00000000000000a7       0x4f /usr/lib/gcc/arm-none-eabi/9.2.1/../../../arm-none-eabi/lib/thumb/v7-m/nofp/libc.a(lib_a-strlen-stub.o)
 .comment       0x00000000000000a7       0x4f /usr/lib/gcc/arm-none-eabi/9.2.1/../../../arm-none-eabi/lib/thumb/v7-m/nofp/libc.a(lib_a-vfprintf.o)
 .comment       0x00000000000000a7       0x4f /usr/lib/gcc/arm-none-eabi/9.2.1/../../../arm-none-eabi/lib/thumb/v7-m/nofp/libc.a(lib_a-wbuf.o)
 .comment       0x00000000000000a7       0x4f /usr/lib/gcc/arm-none-eabi/9.2.1/../../../arm-none-eabi/lib/thumb/v7-m/nofp/libc.a(lib_a-writer.o)
 .comment       0x00000000000000a7       0x4f /usr/lib/gcc/arm-none-eabi/9.2.1/../../../arm-none-eabi/lib/thumb/v7-m/nofp/libc.a(lib_a-wsetup.o)
 .comment       0x00000000000000a7       0x4f /usr/lib/gcc/arm-none-eabi/9.2.1/../../../arm-none-eabi/lib/thumb/v7-m/nofp/libc.a(lib_a-closer.o)
 .comment       0x00000000000000a7       0x4f /usr/lib/gcc/arm-none-eabi/9.2.1/../../../arm-none-eabi/lib/thumb/v7-m/nofp/libc.a(lib_a-dtoa.o)
 .comment       0x00000000000000a7       0x4f /usr/lib/gcc/arm-none-eabi/9.2.1/../../../arm-none-eabi/lib/thumb/v7-m/nofp/libc.a(lib_a-fclose.o)
 .comment       0x00000000000000a7       0x4f /usr/lib/gcc/arm-none-eabi/9.2.1/../../../arm-none-eabi/lib/thumb/v7-m/nofp/libc.a(lib_a-localeconv.o)
 .comment       0x00000000000000a7       0x4f /usr/lib/gcc/arm-none-eabi/9.2.1/../../../arm-none-eabi/lib/thumb/v7-m/nofp/libc.a(lib_a-lseekr.o)
 .comment       0x00000000000000a7       0x4f /usr/lib/gcc/arm-none-eabi/9.2.1/../../../arm-none-eabi/lib/thumb/v7-m/nofp/libc.a(lib_a-makebuf.o)
 .comment       0x00000000000000a7       0x4f /usr/lib/gcc/arm-none-eabi/9.2.1/../../../arm-none-eabi/lib/thumb/v7-m/nofp/libc.a(lib_a-mprec.o)
 .comment       0x00000000000000a7       0x4f /usr/lib/gcc/arm-none-eabi/9.2.1/../../../arm-none-eabi/lib/thumb/v7-m/nofp/libc.a(lib_a-readr.o)
 .comment       0x00000000000000a7       0x4f /usr/lib/gcc/arm-none-eabi/9.2.1/../../../arm-none-eabi/lib/thumb/v7-m/nofp/libc.a(lib_a-reent.o)
 .comment       0x00000000000000a7       0x4f /usr/lib/gcc/arm-none-eabi/9.2.1/../../../arm-none-eabi/lib/thumb/v7-m/nofp/libc.a(lib_a-vfiprintf.o)
 .comment       0x00000000000000a7       0x4f /usr/lib/gcc/arm-none-eabi/9.2.1/../../../arm-none-eabi/lib/thumb/v7-m/nofp/libc.a(lib_a-assert.o)
 .comment       0x00000000000000a7       0x4f /usr/lib/gcc/arm-none-eabi/9.2.1/../../../arm-none-eabi/lib/thumb/v7-m/nofp/libc.a(lib_a-callocr.o)
 .comment       0x00000000000000a7       0x4f /usr/lib/gcc/arm-none-eabi/9.2.1/../../../arm-none-eabi/lib/thumb/v7-m/nofp/libc.a(lib_a-fiprintf.o)
 .comment       0x00000000000000a7       0x4f /usr/lib/gcc/arm-none-eabi/9.2.1/../../../arm-none-eabi/lib/thumb/v7-m/nofp/libc.a(lib_a-fputwc.o)
 .comment       0x00000000000000a7       0x4f /usr/lib/gcc/arm-none-eabi/9.2.1/../../../arm-none-eabi/lib/thumb/v7-m/nofp/libc.a(lib_a-fstatr.o)
 .comment       0x00000000000000a7       0x4f /usr/lib/gcc/arm-none-eabi/9.2.1/../../../arm-none-eabi/lib/thumb/v7-m/nofp/libc.a(lib_a-isattyr.o)
 .comment       0x00000000000000a7       0x4f /usr/lib/gcc/arm-none-eabi/9.2.1/../../../arm-none-eabi/lib/thumb/v7-m/nofp/libc.a(lib_a-locale.o)
 .comment       0x00000000000000a7       0x4f /usr/lib/gcc/arm-none-eabi/9.2.1/../../../arm-none-eabi/lib/thumb/v7-m/nofp/libc.a(lib_a-mbtowc_r.o)
 .comment       0x00000000000000a7       0x4f /usr/lib/gcc/arm-none-eabi/9.2.1/../../../arm-none-eabi/lib/thumb/v7-m/nofp/libc.a(lib_a-wcrtomb.o)
 .comment       0x00000000000000a7       0x4f /usr/lib/gcc/arm-none-eabi/9.2.1/../../../arm-none-eabi/lib/thumb/v7-m/nofp/libc.a(lib_a-wctomb_r.o)
 .comment       0x00000000000000a7       0x5a /usr/lib/gcc/arm-none-eabi/9.2.1/thumb/v7-m/nofp/libgcc.a(_udivmoddi4.o)
 .comment       0x00000000000000a7       0x4f /usr/lib/gcc/arm-none-eabi/9.2.1/../../../arm-none-eabi/lib/thumb/v7-m/nofp/libnosys.a(close.o)
 .comment       0x00000000000000a7       0x4f /usr/lib/gcc/arm-none-eabi/9.2.1/../../../arm-none-eabi/lib/thumb/v7-m/nofp/libnosys.a(fstat.o)
 .comment       0x00000000000000a7       0x4f /usr/lib/gcc/arm-none-eabi/9.2.1/../../../arm-none-eabi/lib/thumb/v7-m/nofp/libnosys.a(getpid.o)
 .comment       0x00000000000000a7       0x4f /usr/lib/gcc/arm-none-eabi/9.2.1/../../../arm-none-eabi/lib/thumb/v7-m/nofp/libnosys.a(isatty.o)
 .comment       0x00000000000000a7       0x4f /usr/lib/gcc/arm-none-eabi/9.2.1/../../../arm-none-eabi/lib/thumb/v7-m/nofp/libnosys.a(kill.o)
 .comment       0x00000000000000a7       0x4f /usr/lib/gcc/arm-none-eabi/9.2.1/../../../arm-none-eabi/lib/thumb/v7-m/nofp/libnosys.a(lseek.o)
 .comment       0x00000000000000a7       0x4f /usr/lib/gcc/arm-none-eabi/9.2.1/../../../arm-none-eabi/lib/thumb/v7-m/nofp/libnosys.a(read.o)
 .comment       0x00000000000000a7       0x4f /usr/lib/gcc/arm-none-eabi/9.2.1/../../../arm-none-eabi/lib/thumb/v7-m/nofp/libnosys.a(sbrk.o)
 .comment       0x00000000000000a7       0x4f /usr/lib/gcc/arm-none-eabi/9.2.1/../../../arm-none-eabi/lib/thumb/v7-m/nofp/libnosys.a(_exit.o)

.ARM.attributes
                0x0000000000000000       0x2b
 .ARM.attributes
                0x0000000000000000       0x2d console.o
 .ARM.attributes
                0x000000000000002d       0x2d console_stm32.o
 .ARM.attributes
                0x000000000000005a       0x2d i2c_ctx.o
 .ARM.attributes
                0x0000000000000087       0x2d bitops.o
 .ARM.attributes
                0x00000000000000b4       0x2d fibre.o
 .ARM.attributes
                0x00000000000000e1       0x2d fibre_default.o
 .ARM.attributes
                0x000000000000010e       0x2d list.o
 .ARM.attributes
                0x000000000000013b       0x2d messageq.o
 .ARM.attributes
                0x0000000000000168       0x2d regdump.o
 .ARM.attributes
                0x0000000000000195       0x2d ringbuf.o
 .ARM.attributes
                0x00000000000001c2       0x2d time_libopencm3.o
 .ARM.attributes
                0x00000000000001ef       0x2d util.o
 .ARM.attributes
                0x000000000000021c       0x2d i2c-stm32f1-usb.o
 .ARM.attributes
                0x0000000000000249       0x2d /home/maddocks/src/i2c-star-stm32f411ceu6-blackpill/libopencm3/lib/libopencm3_stm32f1.a(desig.o)
 .ARM.attributes
                0x0000000000000276       0x2d /home/maddocks/src/i2c-star-stm32f411ceu6-blackpill/libopencm3/lib/libopencm3_stm32f1.a(gpio.o)
 .ARM.attributes
                0x00000000000002a3       0x2d /home/maddocks/src/i2c-star-stm32f411ceu6-blackpill/libopencm3/lib/libopencm3_stm32f1.a(gpio_common_all.o)
 .ARM.attributes
                0x00000000000002d0       0x2d /home/maddocks/src/i2c-star-stm32f411ceu6-blackpill/libopencm3/lib/libopencm3_stm32f1.a(i2c_common_v1.o)
 .ARM.attributes
                0x00000000000002fd       0x2d /home/maddocks/src/i2c-star-stm32f411ceu6-blackpill/libopencm3/lib/libopencm3_stm32f1.a(rcc.o)
 .ARM.attributes
                0x000000000000032a       0x2d /home/maddocks/src/i2c-star-stm32f411ceu6-blackpill/libopencm3/lib/libopencm3_stm32f1.a(rcc_common_all.o)
 .ARM.attributes
                0x0000000000000357       0x2d /home/maddocks/src/i2c-star-stm32f411ceu6-blackpill/libopencm3/lib/libopencm3_stm32f1.a(usart_common_all.o)
 .ARM.attributes
                0x0000000000000384       0x2d /home/maddocks/src/i2c-star-stm32f411ceu6-blackpill/libopencm3/lib/libopencm3_stm32f1.a(usart_common_f124.o)
 .ARM.attributes
                0x00000000000003b1       0x2d /home/maddocks/src/i2c-star-stm32f411ceu6-blackpill/libopencm3/lib/libopencm3_stm32f1.a(usb.o)
 .ARM.attributes
                0x00000000000003de       0x2d /home/maddocks/src/i2c-star-stm32f411ceu6-blackpill/libopencm3/lib/libopencm3_stm32f1.a(usb_control.o)
 .ARM.attributes
                0x000000000000040b       0x2d /home/maddocks/src/i2c-star-stm32f411ceu6-blackpill/libopencm3/lib/libopencm3_stm32f1.a(usb_standard.o)
 .ARM.attributes
                0x0000000000000438       0x2d /home/maddocks/src/i2c-star-stm32f411ceu6-blackpill/libopencm3/lib/libopencm3_stm32f1.a(st_usbfs_v1.o)
 .ARM.attributes
                0x0000000000000465       0x2d /home/maddocks/src/i2c-star-stm32f411ceu6-blackpill/libopencm3/lib/libopencm3_stm32f1.a(vector.o)
 .ARM.attributes
                0x0000000000000492       0x2d /home/maddocks/src/i2c-star-stm32f411ceu6-blackpill/libopencm3/lib/libopencm3_stm32f1.a(systick.o)
 .ARM.attributes
                0x00000000000004bf       0x2d /home/maddocks/src/i2c-star-stm32f411ceu6-blackpill/libopencm3/lib/libopencm3_stm32f1.a(scb.o)
 .ARM.attributes
                0x00000000000004ec       0x2d /home/maddocks/src/i2c-star-stm32f411ceu6-blackpill/libopencm3/lib/libopencm3_stm32f1.a(nvic.o)
 .ARM.attributes
                0x0000000000000519       0x2d /home/maddocks/src/i2c-star-stm32f411ceu6-blackpill/libopencm3/lib/libopencm3_stm32f1.a(flash_common_all.o)
 .ARM.attributes
                0x0000000000000546       0x2d /home/maddocks/src/i2c-star-stm32f411ceu6-blackpill/libopencm3/lib/libopencm3_stm32f1.a(st_usbfs_core.o)
 .ARM.attributes
                0x0000000000000573       0x2d /usr/lib/gcc/arm-none-eabi/9.2.1/../../../arm-none-eabi/lib/thumb/v7-m/nofp/libc.a(lib_a-abort.o)
 .ARM.attributes
                0x00000000000005a0       0x2d /usr/lib/gcc/arm-none-eabi/9.2.1/../../../arm-none-eabi/lib/thumb/v7-m/nofp/libc.a(lib_a-ctype_.o)
 .ARM.attributes
                0x00000000000005cd       0x2d /usr/lib/gcc/arm-none-eabi/9.2.1/../../../arm-none-eabi/lib/thumb/v7-m/nofp/libc.a(lib_a-errno.o)
 .ARM.attributes
                0x00000000000005fa       0x2d /usr/lib/gcc/arm-none-eabi/9.2.1/../../../arm-none-eabi/lib/thumb/v7-m/nofp/libc.a(lib_a-fflush.o)
 .ARM.attributes
                0x0000000000000627       0x2d /usr/lib/gcc/arm-none-eabi/9.2.1/../../../arm-none-eabi/lib/thumb/v7-m/nofp/libc.a(lib_a-findfp.o)
 .ARM.attributes
                0x0000000000000654       0x2d /usr/lib/gcc/arm-none-eabi/9.2.1/../../../arm-none-eabi/lib/thumb/v7-m/nofp/libc.a(lib_a-fprintf.o)
 .ARM.attributes
                0x0000000000000681       0x2d /usr/lib/gcc/arm-none-eabi/9.2.1/../../../arm-none-eabi/lib/thumb/v7-m/nofp/libc.a(lib_a-fputc.o)
 .ARM.attributes
                0x00000000000006ae       0x2d /usr/lib/gcc/arm-none-eabi/9.2.1/../../../arm-none-eabi/lib/thumb/v7-m/nofp/libc.a(lib_a-fputs.o)
 .ARM.attributes
                0x00000000000006db       0x2d /usr/lib/gcc/arm-none-eabi/9.2.1/../../../arm-none-eabi/lib/thumb/v7-m/nofp/libc.a(lib_a-freer.o)
 .ARM.attributes
                0x0000000000000708       0x2d /usr/lib/gcc/arm-none-eabi/9.2.1/../../../arm-none-eabi/lib/thumb/v7-m/nofp/libc.a(lib_a-fvwrite.o)
 .ARM.attributes
                0x0000000000000735       0x2d /usr/lib/gcc/arm-none-eabi/9.2.1/../../../arm-none-eabi/lib/thumb/v7-m/nofp/libc.a(lib_a-fwalk.o)
 .ARM.attributes
                0x0000000000000762       0x2d /usr/lib/gcc/arm-none-eabi/9.2.1/../../../arm-none-eabi/lib/thumb/v7-m/nofp/libc.a(lib_a-impure.o)
 .ARM.attributes
                0x000000000000078f       0x2d /usr/lib/gcc/arm-none-eabi/9.2.1/../../../arm-none-eabi/lib/thumb/v7-m/nofp/libc.a(lib_a-mallocr.o)
 .ARM.attributes
                0x00000000000007bc       0x2d /usr/lib/gcc/arm-none-eabi/9.2.1/../../../arm-none-eabi/lib/thumb/v7-m/nofp/libc.a(lib_a-memchr-stub.o)
 .ARM.attributes
                0x00000000000007e9       0x1b /usr/lib/gcc/arm-none-eabi/9.2.1/../../../arm-none-eabi/lib/thumb/v7-m/nofp/libc.a(lib_a-memcpy.o)
 .ARM.attributes
                0x0000000000000804       0x2d /usr/lib/gcc/arm-none-eabi/9.2.1/../../../arm-none-eabi/lib/thumb/v7-m/nofp/libc.a(lib_a-memmove.o)
 .ARM.attributes
                0x0000000000000831       0x2d /usr/lib/gcc/arm-none-eabi/9.2.1/../../../arm-none-eabi/lib/thumb/v7-m/nofp/libc.a(lib_a-memset.o)
 .ARM.attributes
                0x000000000000085e       0x2d /usr/lib/gcc/arm-none-eabi/9.2.1/../../../arm-none-eabi/lib/thumb/v7-m/nofp/libc.a(lib_a-mlock.o)
 .ARM.attributes
                0x000000000000088b       0x2d /usr/lib/gcc/arm-none-eabi/9.2.1/../../../arm-none-eabi/lib/thumb/v7-m/nofp/libc.a(lib_a-putc.o)
 .ARM.attributes
                0x00000000000008b8       0x2d /usr/lib/gcc/arm-none-eabi/9.2.1/../../../arm-none-eabi/lib/thumb/v7-m/nofp/libc.a(lib_a-puts.o)
 .ARM.attributes
                0x00000000000008e5       0x2d /usr/lib/gcc/arm-none-eabi/9.2.1/../../../arm-none-eabi/lib/thumb/v7-m/nofp/libc.a(lib_a-reallocr.o)
 .ARM.attributes
                0x0000000000000912       0x2d /usr/lib/gcc/arm-none-eabi/9.2.1/../../../arm-none-eabi/lib/thumb/v7-m/nofp/libc.a(lib_a-sbrkr.o)
 .ARM.attributes
                0x000000000000093f       0x2d /usr/lib/gcc/arm-none-eabi/9.2.1/../../../arm-none-eabi/lib/thumb/v7-m/nofp/libc.a(lib_a-signal.o)
 .ARM.attributes
                0x000000000000096c       0x2d /usr/lib/gcc/arm-none-eabi/9.2.1/../../../arm-none-eabi/lib/thumb/v7-m/nofp/libc.a(lib_a-signalr.o)
 .ARM.attributes
                0x0000000000000999       0x2d /usr/lib/gcc/arm-none-eabi/9.2.1/../../../arm-none-eabi/lib/thumb/v7-m/nofp/libc.a(lib_a-stdio.o)
 .ARM.attributes
                0x00000000000009c6       0x1b /usr/lib/gcc/arm-none-eabi/9.2.1/../../../arm-none-eabi/lib/thumb/v7-m/nofp/libc.a(lib_a-strcmp.o)
 .ARM.attributes
                0x00000000000009e1       0x2d /usr/lib/gcc/arm-none-eabi/9.2.1/../../../arm-none-eabi/lib/thumb/v7-m/nofp/libc.a(lib_a-strlen-stub.o)
 .ARM.attributes
                0x0000000000000a0e       0x2d /usr/lib/gcc/arm-none-eabi/9.2.1/../../../arm-none-eabi/lib/thumb/v7-m/nofp/libc.a(lib_a-vfprintf.o)
 .ARM.attributes
                0x0000000000000a3b       0x2d /usr/lib/gcc/arm-none-eabi/9.2.1/../../../arm-none-eabi/lib/thumb/v7-m/nofp/libc.a(lib_a-wbuf.o)
 .ARM.attributes
                0x0000000000000a68       0x2d /usr/lib/gcc/arm-none-eabi/9.2.1/../../../arm-none-eabi/lib/thumb/v7-m/nofp/libc.a(lib_a-writer.o)
 .ARM.attributes
                0x0000000000000a95       0x2d /usr/lib/gcc/arm-none-eabi/9.2.1/../../../arm-none-eabi/lib/thumb/v7-m/nofp/libc.a(lib_a-wsetup.o)
 .ARM.attributes
                0x0000000000000ac2       0x2d /usr/lib/gcc/arm-none-eabi/9.2.1/../../../arm-none-eabi/lib/thumb/v7-m/nofp/libc.a(lib_a-closer.o)
 .ARM.attributes
                0x0000000000000aef       0x2d /usr/lib/gcc/arm-none-eabi/9.2.1/../../../arm-none-eabi/lib/thumb/v7-m/nofp/libc.a(lib_a-dtoa.o)
 .ARM.attributes
                0x0000000000000b1c       0x2d /usr/lib/gcc/arm-none-eabi/9.2.1/../../../arm-none-eabi/lib/thumb/v7-m/nofp/libc.a(lib_a-fclose.o)
 .ARM.attributes
                0x0000000000000b49       0x2d /usr/lib/gcc/arm-none-eabi/9.2.1/../../../arm-none-eabi/lib/thumb/v7-m/nofp/libc.a(lib_a-localeconv.o)
 .ARM.attributes
                0x0000000000000b76       0x2d /usr/lib/gcc/arm-none-eabi/9.2.1/../../../arm-none-eabi/lib/thumb/v7-m/nofp/libc.a(lib_a-lseekr.o)
 .ARM.attributes
                0x0000000000000ba3       0x2d /usr/lib/gcc/arm-none-eabi/9.2.1/../../../arm-none-eabi/lib/thumb/v7-m/nofp/libc.a(lib_a-makebuf.o)
 .ARM.attributes
                0x0000000000000bd0       0x2d /usr/lib/gcc/arm-none-eabi/9.2.1/../../../arm-none-eabi/lib/thumb/v7-m/nofp/libc.a(lib_a-mprec.o)
 .ARM.attributes
                0x0000000000000bfd       0x2d /usr/lib/gcc/arm-none-eabi/9.2.1/../../../arm-none-eabi/lib/thumb/v7-m/nofp/libc.a(lib_a-readr.o)
 .ARM.attributes
                0x0000000000000c2a       0x2d /usr/lib/gcc/arm-none-eabi/9.2.1/../../../arm-none-eabi/lib/thumb/v7-m/nofp/libc.a(lib_a-reent.o)
 .ARM.attributes
                0x0000000000000c57       0x2d /usr/lib/gcc/arm-none-eabi/9.2.1/../../../arm-none-eabi/lib/thumb/v7-m/nofp/libc.a(lib_a-vfiprintf.o)
 .ARM.attributes
                0x0000000000000c84       0x2d /usr/lib/gcc/arm-none-eabi/9.2.1/../../../arm-none-eabi/lib/thumb/v7-m/nofp/libc.a(lib_a-assert.o)
 .ARM.attributes
                0x0000000000000cb1       0x2d /usr/lib/gcc/arm-none-eabi/9.2.1/../../../arm-none-eabi/lib/thumb/v7-m/nofp/libc.a(lib_a-callocr.o)
 .ARM.attributes
                0x0000000000000cde       0x2d /usr/lib/gcc/arm-none-eabi/9.2.1/../../../arm-none-eabi/lib/thumb/v7-m/nofp/libc.a(lib_a-fiprintf.o)
 .ARM.attributes
                0x0000000000000d0b       0x2d /usr/lib/gcc/arm-none-eabi/9.2.1/../../../arm-none-eabi/lib/thumb/v7-m/nofp/libc.a(lib_a-fputwc.o)
 .ARM.attributes
                0x0000000000000d38       0x2d /usr/lib/gcc/arm-none-eabi/9.2.1/../../../arm-none-eabi/lib/thumb/v7-m/nofp/libc.a(lib_a-fstatr.o)
 .ARM.attributes
                0x0000000000000d65       0x2d /usr/lib/gcc/arm-none-eabi/9.2.1/../../../arm-none-eabi/lib/thumb/v7-m/nofp/libc.a(lib_a-isattyr.o)
 .ARM.attributes
                0x0000000000000d92       0x2d /usr/lib/gcc/arm-none-eabi/9.2.1/../../../arm-none-eabi/lib/thumb/v7-m/nofp/libc.a(lib_a-locale.o)
 .ARM.attributes
                0x0000000000000dbf       0x2d /usr/lib/gcc/arm-none-eabi/9.2.1/../../../arm-none-eabi/lib/thumb/v7-m/nofp/libc.a(lib_a-mbtowc_r.o)
 .ARM.attributes
                0x0000000000000dec       0x2d /usr/lib/gcc/arm-none-eabi/9.2.1/../../../arm-none-eabi/lib/thumb/v7-m/nofp/libc.a(lib_a-wcrtomb.o)
 .ARM.attributes
                0x0000000000000e19       0x2d /usr/lib/gcc/arm-none-eabi/9.2.1/../../../arm-none-eabi/lib/thumb/v7-m/nofp/libc.a(lib_a-wctomb_r.o)
 .ARM.attributes
                0x0000000000000e46       0x1d /usr/lib/gcc/arm-none-eabi/9.2.1/thumb/v7-m/nofp/libgcc.a(_arm_addsubdf3.o)
 .ARM.attributes
                0x0000000000000e63       0x1d /usr/lib/gcc/arm-none-eabi/9.2.1/thumb/v7-m/nofp/libgcc.a(_arm_muldivdf3.o)
 .ARM.attributes
                0x0000000000000e80       0x1d /usr/lib/gcc/arm-none-eabi/9.2.1/thumb/v7-m/nofp/libgcc.a(_arm_cmpdf2.o)
 .ARM.attributes
                0x0000000000000e9d       0x1d /usr/lib/gcc/arm-none-eabi/9.2.1/thumb/v7-m/nofp/libgcc.a(_arm_unorddf2.o)
 .ARM.attributes
                0x0000000000000eba       0x1d /usr/lib/gcc/arm-none-eabi/9.2.1/thumb/v7-m/nofp/libgcc.a(_arm_fixdfsi.o)
 .ARM.attributes
                0x0000000000000ed7       0x1d /usr/lib/gcc/arm-none-eabi/9.2.1/thumb/v7-m/nofp/libgcc.a(_aeabi_uldivmod.o)
 .ARM.attributes
                0x0000000000000ef4       0x2d /usr/lib/gcc/arm-none-eabi/9.2.1/thumb/v7-m/nofp/libgcc.a(_udivmoddi4.o)
 .ARM.attributes
                0x0000000000000f21       0x1d /usr/lib/gcc/arm-none-eabi/9.2.1/thumb/v7-m/nofp/libgcc.a(_dvmd_tls.o)
 .ARM.attributes
                0x0000000000000f3e       0x2d /usr/lib/gcc/arm-none-eabi/9.2.1/../../../arm-none-eabi/lib/thumb/v7-m/nofp/libnosys.a(close.o)
 .ARM.attributes
                0x0000000000000f6b       0x2d /usr/lib/gcc/arm-none-eabi/9.2.1/../../../arm-none-eabi/lib/thumb/v7-m/nofp/libnosys.a(fstat.o)
 .ARM.attributes
                0x0000000000000f98       0x2d /usr/lib/gcc/arm-none-eabi/9.2.1/../../../arm-none-eabi/lib/thumb/v7-m/nofp/libnosys.a(getpid.o)
 .ARM.attributes
                0x0000000000000fc5       0x2d /usr/lib/gcc/arm-none-eabi/9.2.1/../../../arm-none-eabi/lib/thumb/v7-m/nofp/libnosys.a(isatty.o)
 .ARM.attributes
                0x0000000000000ff2       0x2d /usr/lib/gcc/arm-none-eabi/9.2.1/../../../arm-none-eabi/lib/thumb/v7-m/nofp/libnosys.a(kill.o)
 .ARM.attributes
                0x000000000000101f       0x2d /usr/lib/gcc/arm-none-eabi/9.2.1/../../../arm-none-eabi/lib/thumb/v7-m/nofp/libnosys.a(lseek.o)
 .ARM.attributes
                0x000000000000104c       0x2d /usr/lib/gcc/arm-none-eabi/9.2.1/../../../arm-none-eabi/lib/thumb/v7-m/nofp/libnosys.a(read.o)
 .ARM.attributes
                0x0000000000001079       0x2d /usr/lib/gcc/arm-none-eabi/9.2.1/../../../arm-none-eabi/lib/thumb/v7-m/nofp/libnosys.a(sbrk.o)
 .ARM.attributes
                0x00000000000010a6       0x2d /usr/lib/gcc/arm-none-eabi/9.2.1/../../../arm-none-eabi/lib/thumb/v7-m/nofp/libnosys.a(_exit.o)

.debug_frame    0x0000000000000000     0x3020
 .debug_frame   0x0000000000000000      0x160 console.o
 .debug_frame   0x0000000000000160       0x70 console_stm32.o
 .debug_frame   0x00000000000001d0      0x160 i2c_ctx.o
 .debug_frame   0x0000000000000330       0x58 bitops.o
 .debug_frame   0x0000000000000388      0x188 fibre.o
 .debug_frame   0x0000000000000510       0x28 fibre_default.o
 .debug_frame   0x0000000000000538       0xe0 list.o
 .debug_frame   0x0000000000000618       0x84 messageq.o
 .debug_frame   0x000000000000069c       0x80 regdump.o
 .debug_frame   0x000000000000071c       0x70 ringbuf.o
 .debug_frame   0x000000000000078c       0x5c time_libopencm3.o
 .debug_frame   0x00000000000007e8       0x70 util.o
 .debug_frame   0x0000000000000858       0xd8 i2c-stm32f1-usb.o
 .debug_frame   0x0000000000000930       0x7c /home/maddocks/src/i2c-star-stm32f411ceu6-blackpill/libopencm3/lib/libopencm3_stm32f1.a(desig.o)
 .debug_frame   0x00000000000009ac       0x60 /home/maddocks/src/i2c-star-stm32f411ceu6-blackpill/libopencm3/lib/libopencm3_stm32f1.a(gpio.o)
 .debug_frame   0x0000000000000a0c       0x80 /home/maddocks/src/i2c-star-stm32f411ceu6-blackpill/libopencm3/lib/libopencm3_stm32f1.a(gpio_common_all.o)
 .debug_frame   0x0000000000000a8c      0x23c /home/maddocks/src/i2c-star-stm32f411ceu6-blackpill/libopencm3/lib/libopencm3_stm32f1.a(i2c_common_v1.o)
 .debug_frame   0x0000000000000cc8      0x2e0 /home/maddocks/src/i2c-star-stm32f411ceu6-blackpill/libopencm3/lib/libopencm3_stm32f1.a(rcc.o)
 .debug_frame   0x0000000000000fa8       0xd0 /home/maddocks/src/i2c-star-stm32f411ceu6-blackpill/libopencm3/lib/libopencm3_stm32f1.a(rcc_common_all.o)
 .debug_frame   0x0000000000001078      0x170 /home/maddocks/src/i2c-star-stm32f411ceu6-blackpill/libopencm3/lib/libopencm3_stm32f1.a(usart_common_all.o)
 .debug_frame   0x00000000000011e8       0x60 /home/maddocks/src/i2c-star-stm32f411ceu6-blackpill/libopencm3/lib/libopencm3_stm32f1.a(usart_common_f124.o)
 .debug_frame   0x0000000000001248      0x13c /home/maddocks/src/i2c-star-stm32f411ceu6-blackpill/libopencm3/lib/libopencm3_stm32f1.a(usb.o)
 .debug_frame   0x0000000000001384      0x164 /home/maddocks/src/i2c-star-stm32f411ceu6-blackpill/libopencm3/lib/libopencm3_stm32f1.a(usb_control.o)
 .debug_frame   0x00000000000014e8      0x1e4 /home/maddocks/src/i2c-star-stm32f411ceu6-blackpill/libopencm3/lib/libopencm3_stm32f1.a(usb_standard.o)
 .debug_frame   0x00000000000016cc       0x54 /home/maddocks/src/i2c-star-stm32f411ceu6-blackpill/libopencm3/lib/libopencm3_stm32f1.a(st_usbfs_v1.o)
 .debug_frame   0x0000000000001720       0x4c /home/maddocks/src/i2c-star-stm32f411ceu6-blackpill/libopencm3/lib/libopencm3_stm32f1.a(vector.o)
 .debug_frame   0x000000000000176c       0xd8 /home/maddocks/src/i2c-star-stm32f411ceu6-blackpill/libopencm3/lib/libopencm3_stm32f1.a(systick.o)
 .debug_frame   0x0000000000001844       0x40 /home/maddocks/src/i2c-star-stm32f411ceu6-blackpill/libopencm3/lib/libopencm3_stm32f1.a(scb.o)
 .debug_frame   0x0000000000001884       0xa0 /home/maddocks/src/i2c-star-stm32f411ceu6-blackpill/libopencm3/lib/libopencm3_stm32f1.a(nvic.o)
 .debug_frame   0x0000000000001924       0x50 /home/maddocks/src/i2c-star-stm32f411ceu6-blackpill/libopencm3/lib/libopencm3_stm32f1.a(flash_common_all.o)
 .debug_frame   0x0000000000001974      0x118 /home/maddocks/src/i2c-star-stm32f411ceu6-blackpill/libopencm3/lib/libopencm3_stm32f1.a(st_usbfs_core.o)
 .debug_frame   0x0000000000001a8c       0x28 /usr/lib/gcc/arm-none-eabi/9.2.1/../../../arm-none-eabi/lib/thumb/v7-m/nofp/libc.a(lib_a-abort.o)
 .debug_frame   0x0000000000001ab4       0x20 /usr/lib/gcc/arm-none-eabi/9.2.1/../../../arm-none-eabi/lib/thumb/v7-m/nofp/libc.a(lib_a-errno.o)
 .debug_frame   0x0000000000001ad4       0x68 /usr/lib/gcc/arm-none-eabi/9.2.1/../../../arm-none-eabi/lib/thumb/v7-m/nofp/libc.a(lib_a-fflush.o)
 .debug_frame   0x0000000000001b3c      0x120 /usr/lib/gcc/arm-none-eabi/9.2.1/../../../arm-none-eabi/lib/thumb/v7-m/nofp/libc.a(lib_a-findfp.o)
 .debug_frame   0x0000000000001c5c       0x74 /usr/lib/gcc/arm-none-eabi/9.2.1/../../../arm-none-eabi/lib/thumb/v7-m/nofp/libc.a(lib_a-fprintf.o)
 .debug_frame   0x0000000000001cd0       0x6c /usr/lib/gcc/arm-none-eabi/9.2.1/../../../arm-none-eabi/lib/thumb/v7-m/nofp/libc.a(lib_a-fputc.o)
 .debug_frame   0x0000000000001d3c       0x44 /usr/lib/gcc/arm-none-eabi/9.2.1/../../../arm-none-eabi/lib/thumb/v7-m/nofp/libc.a(lib_a-fputs.o)
 .debug_frame   0x0000000000001d80       0x8c /usr/lib/gcc/arm-none-eabi/9.2.1/../../../arm-none-eabi/lib/thumb/v7-m/nofp/libc.a(lib_a-freer.o)
 .debug_frame   0x0000000000001e0c       0x64 /usr/lib/gcc/arm-none-eabi/9.2.1/../../../arm-none-eabi/lib/thumb/v7-m/nofp/libc.a(lib_a-fvwrite.o)
 .debug_frame   0x0000000000001e70       0x54 /usr/lib/gcc/arm-none-eabi/9.2.1/../../../arm-none-eabi/lib/thumb/v7-m/nofp/libc.a(lib_a-fwalk.o)
 .debug_frame   0x0000000000001ec4       0x4c /usr/lib/gcc/arm-none-eabi/9.2.1/../../../arm-none-eabi/lib/thumb/v7-m/nofp/libc.a(lib_a-mallocr.o)
 .debug_frame   0x0000000000001f10       0x34 /usr/lib/gcc/arm-none-eabi/9.2.1/../../../arm-none-eabi/lib/thumb/v7-m/nofp/libc.a(lib_a-memchr-stub.o)
 .debug_frame   0x0000000000001f44       0x40 /usr/lib/gcc/arm-none-eabi/9.2.1/../../../arm-none-eabi/lib/thumb/v7-m/nofp/libc.a(lib_a-memmove.o)
 .debug_frame   0x0000000000001f84       0x38 /usr/lib/gcc/arm-none-eabi/9.2.1/../../../arm-none-eabi/lib/thumb/v7-m/nofp/libc.a(lib_a-memset.o)
 .debug_frame   0x0000000000001fbc       0x30 /usr/lib/gcc/arm-none-eabi/9.2.1/../../../arm-none-eabi/lib/thumb/v7-m/nofp/libc.a(lib_a-mlock.o)
 .debug_frame   0x0000000000001fec       0x5c /usr/lib/gcc/arm-none-eabi/9.2.1/../../../arm-none-eabi/lib/thumb/v7-m/nofp/libc.a(lib_a-putc.o)
 .debug_frame   0x0000000000002048       0x44 /usr/lib/gcc/arm-none-eabi/9.2.1/../../../arm-none-eabi/lib/thumb/v7-m/nofp/libc.a(lib_a-puts.o)
 .debug_frame   0x000000000000208c       0x48 /usr/lib/gcc/arm-none-eabi/9.2.1/../../../arm-none-eabi/lib/thumb/v7-m/nofp/libc.a(lib_a-reallocr.o)
 .debug_frame   0x00000000000020d4       0x2c /usr/lib/gcc/arm-none-eabi/9.2.1/../../../arm-none-eabi/lib/thumb/v7-m/nofp/libc.a(lib_a-sbrkr.o)
 .debug_frame   0x0000000000002100       0xe0 /usr/lib/gcc/arm-none-eabi/9.2.1/../../../arm-none-eabi/lib/thumb/v7-m/nofp/libc.a(lib_a-signal.o)
 .debug_frame   0x00000000000021e0       0x3c /usr/lib/gcc/arm-none-eabi/9.2.1/../../../arm-none-eabi/lib/thumb/v7-m/nofp/libc.a(lib_a-signalr.o)
 .debug_frame   0x000000000000221c       0x8c /usr/lib/gcc/arm-none-eabi/9.2.1/../../../arm-none-eabi/lib/thumb/v7-m/nofp/libc.a(lib_a-stdio.o)
 .debug_frame   0x00000000000022a8       0x34 /usr/lib/gcc/arm-none-eabi/9.2.1/../../../arm-none-eabi/lib/thumb/v7-m/nofp/libc.a(lib_a-strcmp.o)
 .debug_frame   0x00000000000022dc       0x20 /usr/lib/gcc/arm-none-eabi/9.2.1/../../../arm-none-eabi/lib/thumb/v7-m/nofp/libc.a(lib_a-strlen-stub.o)
 .debug_frame   0x00000000000022fc       0x84 /usr/lib/gcc/arm-none-eabi/9.2.1/../../../arm-none-eabi/lib/thumb/v7-m/nofp/libc.a(lib_a-vfprintf.o)
 .debug_frame   0x0000000000002380       0x40 /usr/lib/gcc/arm-none-eabi/9.2.1/../../../arm-none-eabi/lib/thumb/v7-m/nofp/libc.a(lib_a-wbuf.o)
 .debug_frame   0x00000000000023c0       0x30 /usr/lib/gcc/arm-none-eabi/9.2.1/../../../arm-none-eabi/lib/thumb/v7-m/nofp/libc.a(lib_a-writer.o)
 .debug_frame   0x00000000000023f0       0x2c /usr/lib/gcc/arm-none-eabi/9.2.1/../../../arm-none-eabi/lib/thumb/v7-m/nofp/libc.a(lib_a-wsetup.o)
 .debug_frame   0x000000000000241c       0x2c /usr/lib/gcc/arm-none-eabi/9.2.1/../../../arm-none-eabi/lib/thumb/v7-m/nofp/libc.a(lib_a-closer.o)
 .debug_frame   0x0000000000002448       0x8c /usr/lib/gcc/arm-none-eabi/9.2.1/../../../arm-none-eabi/lib/thumb/v7-m/nofp/libc.a(lib_a-dtoa.o)
 .debug_frame   0x00000000000024d4       0x3c /usr/lib/gcc/arm-none-eabi/9.2.1/../../../arm-none-eabi/lib/thumb/v7-m/nofp/libc.a(lib_a-fclose.o)
 .debug_frame   0x0000000000002510       0x40 /usr/lib/gcc/arm-none-eabi/9.2.1/../../../arm-none-eabi/lib/thumb/v7-m/nofp/libc.a(lib_a-localeconv.o)
 .debug_frame   0x0000000000002550       0x30 /usr/lib/gcc/arm-none-eabi/9.2.1/../../../arm-none-eabi/lib/thumb/v7-m/nofp/libc.a(lib_a-lseekr.o)
 .debug_frame   0x0000000000002580       0x64 /usr/lib/gcc/arm-none-eabi/9.2.1/../../../arm-none-eabi/lib/thumb/v7-m/nofp/libc.a(lib_a-makebuf.o)
 .debug_frame   0x00000000000025e4      0x264 /usr/lib/gcc/arm-none-eabi/9.2.1/../../../arm-none-eabi/lib/thumb/v7-m/nofp/libc.a(lib_a-mprec.o)
 .debug_frame   0x0000000000002848       0x30 /usr/lib/gcc/arm-none-eabi/9.2.1/../../../arm-none-eabi/lib/thumb/v7-m/nofp/libc.a(lib_a-readr.o)
 .debug_frame   0x0000000000002878       0x60 /usr/lib/gcc/arm-none-eabi/9.2.1/../../../arm-none-eabi/lib/thumb/v7-m/nofp/libc.a(lib_a-reent.o)
 .debug_frame   0x00000000000028d8       0xc8 /usr/lib/gcc/arm-none-eabi/9.2.1/../../../arm-none-eabi/lib/thumb/v7-m/nofp/libc.a(lib_a-vfiprintf.o)
 .debug_frame   0x00000000000029a0       0x40 /usr/lib/gcc/arm-none-eabi/9.2.1/../../../arm-none-eabi/lib/thumb/v7-m/nofp/libc.a(lib_a-assert.o)
 .debug_frame   0x00000000000029e0       0x28 /usr/lib/gcc/arm-none-eabi/9.2.1/../../../arm-none-eabi/lib/thumb/v7-m/nofp/libc.a(lib_a-callocr.o)
 .debug_frame   0x0000000000002a08       0x74 /usr/lib/gcc/arm-none-eabi/9.2.1/../../../arm-none-eabi/lib/thumb/v7-m/nofp/libc.a(lib_a-fiprintf.o)
 .debug_frame   0x0000000000002a7c       0x88 /usr/lib/gcc/arm-none-eabi/9.2.1/../../../arm-none-eabi/lib/thumb/v7-m/nofp/libc.a(lib_a-fputwc.o)
 .debug_frame   0x0000000000002b04       0x2c /usr/lib/gcc/arm-none-eabi/9.2.1/../../../arm-none-eabi/lib/thumb/v7-m/nofp/libc.a(lib_a-fstatr.o)
 .debug_frame   0x0000000000002b30       0x2c /usr/lib/gcc/arm-none-eabi/9.2.1/../../../arm-none-eabi/lib/thumb/v7-m/nofp/libc.a(lib_a-isattyr.o)
 .debug_frame   0x0000000000002b5c       0x54 /usr/lib/gcc/arm-none-eabi/9.2.1/../../../arm-none-eabi/lib/thumb/v7-m/nofp/libc.a(lib_a-locale.o)
 .debug_frame   0x0000000000002bb0       0x4c /usr/lib/gcc/arm-none-eabi/9.2.1/../../../arm-none-eabi/lib/thumb/v7-m/nofp/libc.a(lib_a-mbtowc_r.o)
 .debug_frame   0x0000000000002bfc       0x64 /usr/lib/gcc/arm-none-eabi/9.2.1/../../../arm-none-eabi/lib/thumb/v7-m/nofp/libc.a(lib_a-wcrtomb.o)
 .debug_frame   0x0000000000002c60       0x3c /usr/lib/gcc/arm-none-eabi/9.2.1/../../../arm-none-eabi/lib/thumb/v7-m/nofp/libc.a(lib_a-wctomb_r.o)
 .debug_frame   0x0000000000002c9c       0xac /usr/lib/gcc/arm-none-eabi/9.2.1/thumb/v7-m/nofp/libgcc.a(_arm_addsubdf3.o)
 .debug_frame   0x0000000000002d48       0x50 /usr/lib/gcc/arm-none-eabi/9.2.1/thumb/v7-m/nofp/libgcc.a(_arm_muldivdf3.o)
 .debug_frame   0x0000000000002d98       0xc4 /usr/lib/gcc/arm-none-eabi/9.2.1/thumb/v7-m/nofp/libgcc.a(_arm_cmpdf2.o)
 .debug_frame   0x0000000000002e5c       0x20 /usr/lib/gcc/arm-none-eabi/9.2.1/thumb/v7-m/nofp/libgcc.a(_arm_unorddf2.o)
 .debug_frame   0x0000000000002e7c       0x24 /usr/lib/gcc/arm-none-eabi/9.2.1/thumb/v7-m/nofp/libgcc.a(_arm_fixdfsi.o)
 .debug_frame   0x0000000000002ea0       0x2c /usr/lib/gcc/arm-none-eabi/9.2.1/thumb/v7-m/nofp/libgcc.a(_aeabi_uldivmod.o)
 .debug_frame   0x0000000000002ecc       0x34 /usr/lib/gcc/arm-none-eabi/9.2.1/thumb/v7-m/nofp/libgcc.a(_udivmoddi4.o)
 .debug_frame   0x0000000000002f00       0x20 /usr/lib/gcc/arm-none-eabi/9.2.1/../../../arm-none-eabi/lib/thumb/v7-m/nofp/libnosys.a(close.o)
 .debug_frame   0x0000000000002f20       0x20 /usr/lib/gcc/arm-none-eabi/9.2.1/../../../arm-none-eabi/lib/thumb/v7-m/nofp/libnosys.a(fstat.o)
 .debug_frame   0x0000000000002f40       0x20 /usr/lib/gcc/arm-none-eabi/9.2.1/../../../arm-none-eabi/lib/thumb/v7-m/nofp/libnosys.a(getpid.o)
 .debug_frame   0x0000000000002f60       0x20 /usr/lib/gcc/arm-none-eabi/9.2.1/../../../arm-none-eabi/lib/thumb/v7-m/nofp/libnosys.a(isatty.o)
 .debug_frame   0x0000000000002f80       0x20 /usr/lib/gcc/arm-none-eabi/9.2.1/../../../arm-none-eabi/lib/thumb/v7-m/nofp/libnosys.a(kill.o)
 .debug_frame   0x0000000000002fa0       0x20 /usr/lib/gcc/arm-none-eabi/9.2.1/../../../arm-none-eabi/lib/thumb/v7-m/nofp/libnosys.a(lseek.o)
 .debug_frame   0x0000000000002fc0       0x20 /usr/lib/gcc/arm-none-eabi/9.2.1/../../../arm-none-eabi/lib/thumb/v7-m/nofp/libnosys.a(read.o)
 .debug_frame   0x0000000000002fe0       0x20 /usr/lib/gcc/arm-none-eabi/9.2.1/../../../arm-none-eabi/lib/thumb/v7-m/nofp/libnosys.a(sbrk.o)
 .debug_frame   0x0000000000003000       0x20 /usr/lib/gcc/arm-none-eabi/9.2.1/../../../arm-none-eabi/lib/thumb/v7-m/nofp/libnosys.a(_exit.o)

.debug_macro    0x0000000000000000     0x5722
 .debug_macro   0x0000000000000000       0x63 /home/maddocks/src/i2c-star-stm32f411ceu6-blackpill/libopencm3/lib/libopencm3_stm32f1.a(desig.o)
 .debug_macro   0x0000000000000063      0xa90 /home/maddocks/src/i2c-star-stm32f411ceu6-blackpill/libopencm3/lib/libopencm3_stm32f1.a(desig.o)
 .debug_macro   0x0000000000000af3       0x1c /home/maddocks/src/i2c-star-stm32f411ceu6-blackpill/libopencm3/lib/libopencm3_stm32f1.a(desig.o)
 .debug_macro   0x0000000000000b0f      0x34e /home/maddocks/src/i2c-star-stm32f411ceu6-blackpill/libopencm3/lib/libopencm3_stm32f1.a(desig.o)
 .debug_macro   0x0000000000000e5d       0x22 /home/maddocks/src/i2c-star-stm32f411ceu6-blackpill/libopencm3/lib/libopencm3_stm32f1.a(desig.o)
 .debug_macro   0x0000000000000e7f       0xe8 /home/maddocks/src/i2c-star-stm32f411ceu6-blackpill/libopencm3/lib/libopencm3_stm32f1.a(desig.o)
 .debug_macro   0x0000000000000f67       0x76 /home/maddocks/src/i2c-star-stm32f411ceu6-blackpill/libopencm3/lib/libopencm3_stm32f1.a(desig.o)
 .debug_macro   0x0000000000000fdd      0x1b4 /home/maddocks/src/i2c-star-stm32f411ceu6-blackpill/libopencm3/lib/libopencm3_stm32f1.a(desig.o)
 .debug_macro   0x0000000000001191       0x6f /home/maddocks/src/i2c-star-stm32f411ceu6-blackpill/libopencm3/lib/libopencm3_stm32f1.a(gpio.o)
 .debug_macro   0x0000000000001200       0x76 /home/maddocks/src/i2c-star-stm32f411ceu6-blackpill/libopencm3/lib/libopencm3_stm32f1.a(gpio.o)
 .debug_macro   0x0000000000001276      0xe04 /home/maddocks/src/i2c-star-stm32f411ceu6-blackpill/libopencm3/lib/libopencm3_stm32f1.a(gpio.o)
 .debug_macro   0x000000000000207a       0x6f /home/maddocks/src/i2c-star-stm32f411ceu6-blackpill/libopencm3/lib/libopencm3_stm32f1.a(gpio_common_all.o)
 .debug_macro   0x00000000000020e9       0x91 /home/maddocks/src/i2c-star-stm32f411ceu6-blackpill/libopencm3/lib/libopencm3_stm32f1.a(i2c_common_v1.o)
 .debug_macro   0x000000000000217a      0x16d /home/maddocks/src/i2c-star-stm32f411ceu6-blackpill/libopencm3/lib/libopencm3_stm32f1.a(i2c_common_v1.o)
 .debug_macro   0x00000000000022e7      0x32c /home/maddocks/src/i2c-star-stm32f411ceu6-blackpill/libopencm3/lib/libopencm3_stm32f1.a(i2c_common_v1.o)
 .debug_macro   0x0000000000002613      0x82c /home/maddocks/src/i2c-star-stm32f411ceu6-blackpill/libopencm3/lib/libopencm3_stm32f1.a(i2c_common_v1.o)
 .debug_macro   0x0000000000002e3f       0x9e /home/maddocks/src/i2c-star-stm32f411ceu6-blackpill/libopencm3/lib/libopencm3_stm32f1.a(rcc.o)
 .debug_macro   0x0000000000002edd       0x16 /home/maddocks/src/i2c-star-stm32f411ceu6-blackpill/libopencm3/lib/libopencm3_stm32f1.a(rcc.o)
 .debug_macro   0x0000000000002ef3       0xee /home/maddocks/src/i2c-star-stm32f411ceu6-blackpill/libopencm3/lib/libopencm3_stm32f1.a(rcc.o)
 .debug_macro   0x0000000000002fe1       0x82 /home/maddocks/src/i2c-star-stm32f411ceu6-blackpill/libopencm3/lib/libopencm3_stm32f1.a(rcc.o)
 .debug_macro   0x0000000000003063       0x85 /home/maddocks/src/i2c-star-stm32f411ceu6-blackpill/libopencm3/lib/libopencm3_stm32f1.a(rcc_common_all.o)
 .debug_macro   0x00000000000030e8       0x91 /home/maddocks/src/i2c-star-stm32f411ceu6-blackpill/libopencm3/lib/libopencm3_stm32f1.a(usart_common_all.o)
 .debug_macro   0x0000000000003179       0x94 /home/maddocks/src/i2c-star-stm32f411ceu6-blackpill/libopencm3/lib/libopencm3_stm32f1.a(usart_common_all.o)
 .debug_macro   0x000000000000320d      0x29e /home/maddocks/src/i2c-star-stm32f411ceu6-blackpill/libopencm3/lib/libopencm3_stm32f1.a(usart_common_all.o)
 .debug_macro   0x00000000000034ab       0x91 /home/maddocks/src/i2c-star-stm32f411ceu6-blackpill/libopencm3/lib/libopencm3_stm32f1.a(usart_common_f124.o)
 .debug_macro   0x000000000000353c      0x124 /home/maddocks/src/i2c-star-stm32f411ceu6-blackpill/libopencm3/lib/libopencm3_stm32f1.a(usb.o)
 .debug_macro   0x0000000000003660       0x22 /home/maddocks/src/i2c-star-stm32f411ceu6-blackpill/libopencm3/lib/libopencm3_stm32f1.a(usb.o)
 .debug_macro   0x0000000000003682       0x52 /home/maddocks/src/i2c-star-stm32f411ceu6-blackpill/libopencm3/lib/libopencm3_stm32f1.a(usb.o)
 .debug_macro   0x00000000000036d4       0x18 /home/maddocks/src/i2c-star-stm32f411ceu6-blackpill/libopencm3/lib/libopencm3_stm32f1.a(usb.o)
 .debug_macro   0x00000000000036ec       0x5c /home/maddocks/src/i2c-star-stm32f411ceu6-blackpill/libopencm3/lib/libopencm3_stm32f1.a(usb.o)
 .debug_macro   0x0000000000003748       0x35 /home/maddocks/src/i2c-star-stm32f411ceu6-blackpill/libopencm3/lib/libopencm3_stm32f1.a(usb.o)
 .debug_macro   0x000000000000377d       0x34 /home/maddocks/src/i2c-star-stm32f411ceu6-blackpill/libopencm3/lib/libopencm3_stm32f1.a(usb.o)
 .debug_macro   0x00000000000037b1       0x16 /home/maddocks/src/i2c-star-stm32f411ceu6-blackpill/libopencm3/lib/libopencm3_stm32f1.a(usb.o)
 .debug_macro   0x00000000000037c7       0x43 /home/maddocks/src/i2c-star-stm32f411ceu6-blackpill/libopencm3/lib/libopencm3_stm32f1.a(usb.o)
 .debug_macro   0x000000000000380a       0x57 /home/maddocks/src/i2c-star-stm32f411ceu6-blackpill/libopencm3/lib/libopencm3_stm32f1.a(usb.o)
 .debug_macro   0x0000000000003861       0x34 /home/maddocks/src/i2c-star-stm32f411ceu6-blackpill/libopencm3/lib/libopencm3_stm32f1.a(usb.o)
 .debug_macro   0x0000000000003895       0x10 /home/maddocks/src/i2c-star-stm32f411ceu6-blackpill/libopencm3/lib/libopencm3_stm32f1.a(usb.o)
 .debug_macro   0x00000000000038a5       0x52 /home/maddocks/src/i2c-star-stm32f411ceu6-blackpill/libopencm3/lib/libopencm3_stm32f1.a(usb.o)
 .debug_macro   0x00000000000038f7      0x182 /home/maddocks/src/i2c-star-stm32f411ceu6-blackpill/libopencm3/lib/libopencm3_stm32f1.a(usb.o)
 .debug_macro   0x0000000000003a79      0x35c /home/maddocks/src/i2c-star-stm32f411ceu6-blackpill/libopencm3/lib/libopencm3_stm32f1.a(usb.o)
 .debug_macro   0x0000000000003dd5       0x10 /home/maddocks/src/i2c-star-stm32f411ceu6-blackpill/libopencm3/lib/libopencm3_stm32f1.a(usb.o)
 .debug_macro   0x0000000000003de5       0x35 /home/maddocks/src/i2c-star-stm32f411ceu6-blackpill/libopencm3/lib/libopencm3_stm32f1.a(usb.o)
 .debug_macro   0x0000000000003e1a      0x19c /home/maddocks/src/i2c-star-stm32f411ceu6-blackpill/libopencm3/lib/libopencm3_stm32f1.a(usb.o)
 .debug_macro   0x0000000000003fb6       0x10 /home/maddocks/src/i2c-star-stm32f411ceu6-blackpill/libopencm3/lib/libopencm3_stm32f1.a(usb.o)
 .debug_macro   0x0000000000003fc6       0x1c /home/maddocks/src/i2c-star-stm32f411ceu6-blackpill/libopencm3/lib/libopencm3_stm32f1.a(usb.o)
 .debug_macro   0x0000000000003fe2      0x132 /home/maddocks/src/i2c-star-stm32f411ceu6-blackpill/libopencm3/lib/libopencm3_stm32f1.a(usb_control.o)
 .debug_macro   0x0000000000004114       0x16 /home/maddocks/src/i2c-star-stm32f411ceu6-blackpill/libopencm3/lib/libopencm3_stm32f1.a(usb_control.o)
 .debug_macro   0x000000000000412a      0x10e /home/maddocks/src/i2c-star-stm32f411ceu6-blackpill/libopencm3/lib/libopencm3_stm32f1.a(usb_control.o)
 .debug_macro   0x0000000000004238       0x86 /home/maddocks/src/i2c-star-stm32f411ceu6-blackpill/libopencm3/lib/libopencm3_stm32f1.a(usb_control.o)
 .debug_macro   0x00000000000042be       0x22 /home/maddocks/src/i2c-star-stm32f411ceu6-blackpill/libopencm3/lib/libopencm3_stm32f1.a(usb_control.o)
 .debug_macro   0x00000000000042e0      0x124 /home/maddocks/src/i2c-star-stm32f411ceu6-blackpill/libopencm3/lib/libopencm3_stm32f1.a(usb_standard.o)
 .debug_macro   0x0000000000004404       0xc4 /home/maddocks/src/i2c-star-stm32f411ceu6-blackpill/libopencm3/lib/libopencm3_stm32f1.a(st_usbfs_v1.o)
 .debug_macro   0x00000000000044c8       0x3a /home/maddocks/src/i2c-star-stm32f411ceu6-blackpill/libopencm3/lib/libopencm3_stm32f1.a(st_usbfs_v1.o)
 .debug_macro   0x0000000000004502      0x29e /home/maddocks/src/i2c-star-stm32f411ceu6-blackpill/libopencm3/lib/libopencm3_stm32f1.a(st_usbfs_v1.o)
 .debug_macro   0x00000000000047a0       0x28 /home/maddocks/src/i2c-star-stm32f411ceu6-blackpill/libopencm3/lib/libopencm3_stm32f1.a(st_usbfs_v1.o)
 .debug_macro   0x00000000000047c8      0x1a2 /home/maddocks/src/i2c-star-stm32f411ceu6-blackpill/libopencm3/lib/libopencm3_stm32f1.a(st_usbfs_v1.o)
 .debug_macro   0x000000000000496a       0x10 /home/maddocks/src/i2c-star-stm32f411ceu6-blackpill/libopencm3/lib/libopencm3_stm32f1.a(st_usbfs_v1.o)
 .debug_macro   0x000000000000497a       0x86 /home/maddocks/src/i2c-star-stm32f411ceu6-blackpill/libopencm3/lib/libopencm3_stm32f1.a(vector.o)
 .debug_macro   0x0000000000004a00      0x395 /home/maddocks/src/i2c-star-stm32f411ceu6-blackpill/libopencm3/lib/libopencm3_stm32f1.a(vector.o)
 .debug_macro   0x0000000000004d95       0x6e /home/maddocks/src/i2c-star-stm32f411ceu6-blackpill/libopencm3/lib/libopencm3_stm32f1.a(vector.o)
 .debug_macro   0x0000000000004e03      0x1a2 /home/maddocks/src/i2c-star-stm32f411ceu6-blackpill/libopencm3/lib/libopencm3_stm32f1.a(vector.o)
 .debug_macro   0x0000000000004fa5       0x49 /home/maddocks/src/i2c-star-stm32f411ceu6-blackpill/libopencm3/lib/libopencm3_stm32f1.a(systick.o)
 .debug_macro   0x0000000000004fee       0x69 /home/maddocks/src/i2c-star-stm32f411ceu6-blackpill/libopencm3/lib/libopencm3_stm32f1.a(systick.o)
 .debug_macro   0x0000000000005057      0x123 /home/maddocks/src/i2c-star-stm32f411ceu6-blackpill/libopencm3/lib/libopencm3_stm32f1.a(scb.o)
 .debug_macro   0x000000000000517a       0x6a /home/maddocks/src/i2c-star-stm32f411ceu6-blackpill/libopencm3/lib/libopencm3_stm32f1.a(nvic.o)
 .debug_macro   0x00000000000051e4       0x68 /home/maddocks/src/i2c-star-stm32f411ceu6-blackpill/libopencm3/lib/libopencm3_stm32f1.a(nvic.o)
 .debug_macro   0x000000000000524c      0x39b /home/maddocks/src/i2c-star-stm32f411ceu6-blackpill/libopencm3/lib/libopencm3_stm32f1.a(nvic.o)
 .debug_macro   0x00000000000055e7       0x77 /home/maddocks/src/i2c-star-stm32f411ceu6-blackpill/libopencm3/lib/libopencm3_stm32f1.a(flash_common_all.o)
 .debug_macro   0x000000000000565e       0xc4 /home/maddocks/src/i2c-star-stm32f411ceu6-blackpill/libopencm3/lib/libopencm3_stm32f1.a(st_usbfs_core.o)

.stab           0x0000000000000000       0xb4
 .stab          0x0000000000000000       0x24 /usr/lib/gcc/arm-none-eabi/9.2.1/../../../arm-none-eabi/lib/thumb/v7-m/nofp/libnosys.a(close.o)
 .stab          0x0000000000000024       0x18 /usr/lib/gcc/arm-none-eabi/9.2.1/../../../arm-none-eabi/lib/thumb/v7-m/nofp/libnosys.a(fstat.o)
                                         0x24 (size before relaxing)
 .stab          0x000000000000003c       0x18 /usr/lib/gcc/arm-none-eabi/9.2.1/../../../arm-none-eabi/lib/thumb/v7-m/nofp/libnosys.a(getpid.o)
                                         0x24 (size before relaxing)
 .stab          0x0000000000000054       0x18 /usr/lib/gcc/arm-none-eabi/9.2.1/../../../arm-none-eabi/lib/thumb/v7-m/nofp/libnosys.a(isatty.o)
                                         0x24 (size before relaxing)
 .stab          0x000000000000006c       0x18 /usr/lib/gcc/arm-none-eabi/9.2.1/../../../arm-none-eabi/lib/thumb/v7-m/nofp/libnosys.a(kill.o)
                                         0x24 (size before relaxing)
 .stab          0x0000000000000084       0x18 /usr/lib/gcc/arm-none-eabi/9.2.1/../../../arm-none-eabi/lib/thumb/v7-m/nofp/libnosys.a(lseek.o)
                                         0x24 (size before relaxing)
 .stab          0x000000000000009c       0x18 /usr/lib/gcc/arm-none-eabi/9.2.1/../../../arm-none-eabi/lib/thumb/v7-m/nofp/libnosys.a(read.o)
                                         0x24 (size before relaxing)

.stabstr        0x0000000000000000      0x183
 .stabstr       0x0000000000000000      0x183 /usr/lib/gcc/arm-none-eabi/9.2.1/../../../arm-none-eabi/lib/thumb/v7-m/nofp/libnosys.a(close.o)
